(dp0
S'fawn'
p1
NsS'trenton'
p2
NsS'augustina'
p3
NsS'evalyn'
p4
NsS'augustine'
p5
NsS'kymberly'
p6
NsS'linsey'
p7
NsS'hermina'
p8
NsS'karolyn'
p9
NsS'terrilyn'
p10
NsS'venice'
p11
NsS'rosalee'
p12
NsS'sonja'
p13
NsS'andre'
p14
NsS'leonia'
p15
NsS'fredric'
p16
NsS'andra'
p17
NsS'roslyn'
p18
NsS'elva'
p19
NsS'francesca'
p20
NsS'gabriella'
p21
NsS'gabrielle'
p22
NsS'cherrie'
p23
NsS'latrisha'
p24
NsS'darron'
p25
NsS'winfred'
p26
NsS'pedro'
p27
NsS'lory'
p28
NsS'buddy'
p29
NsS'marcos'
p30
NsS'paris'
p31
NsS'aileen'
p32
NsS'donita'
p33
NsS'loura'
p34
NsS'krysten'
p35
NsS'edward'
p36
NsS'lori'
p37
NsS'zofia'
p38
NsS'phung'
p39
NsS'lore'
p40
NsS'evangeline'
p41
NsS'regan'
p42
NsS'eveline'
p43
NsS'lora'
p44
NsS'tomoko'
p45
NsS'jenniffer'
p46
NsS'avril'
p47
NsS'stanton'
p48
NsS'wendolyn'
p49
NsS'lura'
p50
NsS'gilma'
p51
NsS'callie'
p52
NsS'aurora'
p53
NsS'kiana'
p54
NsS'dell'
p55
NsS'aurore'
p56
NsS'risa'
p57
NsS'merlene'
p58
NsS'rosalba'
p59
NsS'wilfred'
p60
NsS'elisabeth'
p61
NsS'manie'
p62
NsS'jacob'
p63
NsS'arminda'
p64
NsS'deeanna'
p65
NsS'raymon'
p66
NsS'mozell'
p67
NsS'waldo'
p68
NsS'leonor'
p69
NsS'alta'
p70
NsS'cayla'
p71
NsS'zonia'
p72
NsS'herbert'
p73
NsS'vincenza'
p74
NsS'altagracia'
p75
NsS'deloris'
p76
NsS'zenobia'
p77
NsS'elissa'
p78
NsS'harriet'
p79
NsS'caryl'
p80
NsS'caryn'
p81
NsS'suzann'
p82
NsS'eileen'
p83
NsS'ellan'
p84
NsS'chet'
p85
NsS'cher'
p86
NsS'bo'
p87
NsS'earlean'
p88
NsS'golda'
p89
NsS'francesco'
p90
NsS'sammie'
p91
NsS'eleanore'
p92
NsS'armandina'
p93
NsS'rusty'
p94
NsS'eldon'
p95
NsS'enoch'
p96
NsS'tameka'
p97
NsS'jacinda'
p98
NsS'melvin'
p99
NsS'katerine'
p100
NsS'mabelle'
p101
NsS'clorinda'
p102
NsS'paulette'
p103
NsS'faye'
p104
NsS'pauletta'
p105
NsS'jordon'
p106
NsS'ruben'
p107
NsS'alishia'
p108
NsS'ned'
p109
NsS'fidelia'
p110
NsS'minta'
p111
NsS'joline'
p112
NsS'randell'
p113
NsS'naida'
p114
NsS'cordia'
p115
NsS'kum'
p116
NsS'arlean'
p117
NsS'selena'
p118
NsS'monty'
p119
NsS'alaine'
p120
NsS'frank'
p121
NsS'nubia'
p122
NsS'antoinette'
p123
NsS'petra'
p124
NsS'jayson'
p125
NsS'luanna'
p126
NsS'mee'
p127
NsS'meg'
p128
NsS'zack'
p129
NsS'avery'
p130
NsS'taryn'
p131
NsS'chasidy'
p132
NsS'eunice'
p133
NsS'jasmine'
p134
NsS'sanford'
p135
NsS'drew'
p136
NsS'arnetta'
p137
NsS'america'
p138
NsS'ching'
p139
NsS'dora'
p140
NsS'brooks'
p141
NsS'lera'
p142
NsS'rema'
p143
NsS'mitzie'
p144
NsS'leighann'
p145
NsS'dori'
p146
NsS'danuta'
p147
NsS'geraldo'
p148
NsS'gerry'
p149
NsS'luther'
p150
NsS'jennefer'
p151
NsS'audra'
p152
NsS'idell'
p153
NsS'cindi'
p154
NsS'stevie'
p155
NsS'mitchell'
p156
NsS'verdie'
p157
NsS'juana'
p158
NsS'gerri'
p159
NsS'jame'
p160
NsS'gianna'
p161
NsS'jerald'
p162
NsS'cindy'
p163
NsS'ayako'
p164
NsS'latosha'
p165
NsS'audry'
p166
NsS'jami'
p167
NsS'jann'
p168
NsS'joshua'
p169
NsS'golden'
p170
NsS'marianna'
p171
NsS'marquita'
p172
NsS'marianne'
p173
NsS'julie'
p174
NsS'lynna'
p175
NsS'reagan'
p176
NsS'willow'
p177
NsS'julia'
p178
NsS'lynne'
p179
NsS'pia'
p180
NsS'marina'
p181
NsS'dortha'
p182
NsS'tennille'
p183
NsS'erminia'
p184
NsS'melani'
p185
NsS'lynsey'
p186
NsS'janine'
p187
NsS'santina'
p188
NsS'janina'
p189
NsS'ebony'
p190
NsS'tashina'
p191
NsS'sarah'
p192
NsS'sarai'
p193
NsS'doretta'
p194
NsS'saran'
p195
NsS'marine'
p196
NsS'elicia'
p197
NsS'nora'
p198
NsS'vanesa'
p199
NsS'marketta'
p200
NsS'laurena'
p201
NsS'charlyn'
p202
NsS'collene'
p203
NsS'harland'
p204
NsS'anitra'
p205
NsS'lamonica'
p206
NsS'daisey'
p207
NsS'giovanna'
p208
NsS'joycelyn'
p209
NsS'taneka'
p210
NsS'asa'
p211
NsS'marva'
p212
NsS'leesa'
p213
NsS'melda'
p214
NsS'oscar'
p215
NsS'odell'
p216
NsS'tuyet'
p217
NsS'dimple'
p218
NsS'brittny'
p219
NsS'melba'
p220
NsS'sherita'
p221
NsS'celestine'
p222
NsS'majorie'
p223
NsS'pura'
p224
NsS'ward'
p225
NsS'debora'
p226
NsS'taisha'
p227
NsS'clemencia'
p228
NsS'julieann'
p229
NsS'irvin'
p230
NsS'flora'
p231
NsS'ma'
p232
NsS'magen'
p233
NsS'serita'
p234
NsS'sherlyn'
p235
NsS'racheal'
p236
NsS'mi'
p237
NsS'janene'
p238
NsS'boyce'
p239
NsS'grover'
p240
NsS'era'
p241
NsS'shanae'
p242
NsS'henry'
p243
NsS'olen'
p244
NsS'ernest'
p245
NsS'jamal'
p246
NsS'matilde'
p247
NsS'carmen'
p248
NsS'gloria'
p249
NsS'matilda'
p250
NsS'rochel'
p251
NsS'hallie'
p252
NsS'sima'
p253
NsS'porsha'
p254
NsS'melony'
p255
NsS'bennett'
p256
NsS'india'
p257
NsS'latisha'
p258
NsS'julissa'
p259
NsS'honey'
p260
NsS'maryln'
p261
NsS'lakisha'
p262
NsS'fay'
p263
NsS'guillermina'
p264
NsS'erinn'
p265
NsS'micki'
p266
NsS'frieda'
p267
NsS'kraig'
p268
NsS'willodean'
p269
NsS'joann'
p270
NsS'elvie'
p271
NsS'hoa'
p272
NsS'elbert'
p273
NsS'leana'
p274
NsS'drucilla'
p275
NsS'joana'
p276
NsS'jestine'
p277
NsS'tobie'
p278
NsS'katelynn'
p279
NsS'yvone'
p280
NsS'florencio'
p281
NsS'allene'
p282
NsS'harlan'
p283
NsS'ria'
p284
NsS'marcela'
p285
NsS'ronnie'
p286
NsS'raleigh'
p287
NsS'barbra'
p288
NsS'becky'
p289
NsS'candyce'
p290
NsS'elizabeth'
p291
NsS'flossie'
p292
NsS'slyvia'
p293
NsS'stefani'
p294
NsS'yun'
p295
NsS'shea'
p296
NsS'lashandra'
p297
NsS'lianne'
p298
NsS'olimpia'
p299
NsS'kera'
p300
NsS'judie'
p301
NsS'barney'
p302
NsS'deeann'
p303
NsS'danyelle'
p304
NsS'jesusita'
p305
NsS'sasha'
p306
NsS'royce'
p307
NsS'carolynn'
p308
NsS'glenna'
p309
NsS'vance'
p310
NsS'danny'
p311
NsS'tegan'
p312
NsS'janis'
p313
NsS'dorine'
p314
NsS'amie'
p315
NsS'rudolf'
p316
NsS'carolyne'
p317
NsS'cheri'
p318
NsS'eleni'
p319
NsS'harley'
p320
NsS'janie'
p321
NsS'allison'
p322
NsS'rolande'
p323
NsS'angelique'
p324
NsS'maurita'
p325
NsS'rivka'
p326
NsS'danna'
p327
NsS'chery'
p328
NsS'reginia'
p329
NsS'rolando'
p330
NsS'jack'
p331
NsS'coleen'
p332
NsS'shay'
p333
NsS'tatum'
p334
NsS'leeanna'
p335
NsS'inocencia'
p336
NsS'murray'
p337
NsS'bella'
p338
NsS'debrah'
p339
NsS'helena'
p340
NsS'georgianna'
p341
NsS'vito'
p342
NsS'helene'
p343
NsS'mabel'
p344
NsS'georgianne'
p345
NsS'malka'
p346
NsS'lorine'
p347
NsS'vita'
p348
NsS'leatha'
p349
NsS'zachariah'
p350
NsS'leonora'
p351
NsS'tisha'
p352
NsS'rosita'
p353
NsS'shawnee'
p354
NsS'dinorah'
p355
NsS'christin'
p356
NsS'edith'
p357
NsS'bibi'
p358
NsS'christie'
p359
NsS'denver'
p360
NsS'tawanda'
p361
NsS'sonya'
p362
NsS'noemi'
p363
NsS'jenni'
p364
NsS'pennie'
p365
NsS'clelia'
p366
NsS'shenita'
p367
NsS'eugene'
p368
NsS'theo'
p369
NsS'keturah'
p370
NsS'ona'
p371
NsS'liberty'
p372
NsS'shad'
p373
NsS'araceli'
p374
NsS'fabiola'
p375
NsS'thea'
p376
NsS'carmelia'
p377
NsS'lekisha'
p378
NsS'heike'
p379
NsS'jacquie'
p380
NsS'ernesto'
p381
NsS'aracely'
p382
NsS'sarita'
p383
NsS'justina'
p384
NsS'millie'
p385
NsS'hiedi'
p386
NsS'hye'
p387
NsS'gregorio'
p388
NsS'yon'
p389
NsS'maida'
p390
NsS'alex'
p391
NsS'loraine'
p392
NsS'sharice'
p393
NsS'lillian'
p394
NsS'lorena'
p395
NsS'lilliam'
p396
NsS'barton'
p397
NsS'chuck'
p398
NsS'alexis'
p399
NsS'arron'
p400
NsS'anastasia'
p401
NsS'evelia'
p402
NsS'lillie'
p403
NsS'clarita'
p404
NsS'raylene'
p405
NsS'eladia'
p406
NsS'briana'
p407
NsS'rosemary'
p408
NsS'pearlie'
p409
NsS'carlos'
p410
NsS'alec'
p411
NsS'luann'
p412
NsS'roxy'
p413
NsS'neoma'
p414
NsS'jillian'
p415
NsS'diann'
p416
NsS'diana'
p417
NsS'aida'
p418
NsS'diane'
p419
NsS'allan'
p420
NsS'january'
p421
NsS'thelma'
p422
NsS'yahaira'
p423
NsS'elwood'
p424
NsS'jacalyn'
p425
NsS'yvette'
p426
NsS'doug'
p427
NsS'dorethea'
p428
NsS'dawn'
p429
NsS'truman'
p430
NsS'kathlene'
p431
NsS'domitila'
p432
NsS'julianna'
p433
NsS'vada'
p434
NsS'arielle'
p435
NsS'julianne'
p436
NsS'tyisha'
p437
NsS'rina'
p438
NsS'dewitt'
p439
NsS'mandy'
p440
NsS'mason'
p441
NsS'sparkle'
p442
NsS'nita'
p443
NsS'daniel'
p444
NsS'manda'
p445
NsS'rosann'
p446
NsS'wonda'
p447
NsS'creola'
p448
NsS'aja'
p449
NsS'cris'
p450
NsS'judith'
p451
NsS'ella'
p452
NsS'ladonna'
p453
NsS'herma'
p454
NsS'kip'
p455
NsS'jama'
p456
NsS'clarence'
p457
NsS'veta'
p458
NsS'ruthann'
p459
NsS'tasha'
p460
NsS'josef'
p461
NsS'sana'
p462
NsS'ramon'
p463
NsS'fred'
p464
NsS'kayla'
p465
NsS'jennie'
p466
NsS'marquitta'
p467
NsS'jonie'
p468
NsS'joleen'
p469
NsS'venus'
p470
NsS'sharmaine'
p471
NsS'renee'
p472
NsS'maribel'
p473
NsS'parthenia'
p474
NsS'dorinda'
p475
NsS'birdie'
p476
NsS'berneice'
p477
NsS'faviola'
p478
NsS'lucina'
p479
NsS'elly'
p480
NsS'caprice'
p481
NsS'jenee'
p482
NsS'leila'
p483
NsS'hobert'
p484
NsS'arline'
p485
NsS'cheryle'
p486
NsS'damaris'
p487
NsS'jaleesa'
p488
NsS'isa'
p489
NsS'magdalena'
p490
NsS'fransisca'
p491
NsS'cheryll'
p492
NsS'stewart'
p493
NsS'lavern'
p494
NsS'joslyn'
p495
NsS'thomasina'
p496
NsS'nigel'
p497
NsS'angelia'
p498
NsS'elmo'
p499
NsS'elma'
p500
NsS'dione'
p501
NsS'janean'
p502
NsS''
p503
NsS'marisol'
p504
NsS'deonna'
p505
NsS'waltraud'
p506
NsS'grady'
p507
NsS'phylicia'
p508
NsS'kayleen'
p509
NsS'milissa'
p510
NsS'gwyneth'
p511
NsS'roseline'
p512
NsS'kia'
p513
NsS'enid'
p514
NsS'brock'
p515
NsS'timothy'
p516
NsS'roni'
p517
NsS'delma'
p518
NsS'jefferey'
p519
NsS'bonita'
p520
NsS'suzi'
p521
NsS'ryann'
p522
NsS'rona'
p523
NsS'rossie'
p524
NsS'hyo'
p525
NsS'reuben'
p526
NsS'peggie'
p527
NsS'inger'
p528
NsS'eartha'
p529
NsS'garry'
p530
NsS'magda'
p531
NsS'tom'
p532
NsS'britany'
p533
NsS'gilbert'
p534
NsS'john'
p535
NsS'genesis'
p536
NsS'tod'
p537
NsS'caitlyn'
p538
NsS'izetta'
p539
NsS'agustina'
p540
NsS'kenton'
p541
NsS'geneva'
p542
NsS'grayce'
p543
NsS'chantel'
p544
NsS'lucienne'
p545
NsS'albert'
p546
NsS'gayla'
p547
NsS'dorathy'
p548
NsS'tamekia'
p549
NsS'leota'
p550
NsS'philomena'
p551
NsS'helen'
p552
NsS'gretchen'
p553
NsS'babette'
p554
NsS'samara'
p555
NsS'enola'
p556
NsS'dawne'
p557
NsS'bebe'
p558
NsS'nakia'
p559
NsS'ahmed'
p560
NsS'pamula'
p561
NsS'timika'
p562
NsS'bethann'
p563
NsS'daina'
p564
NsS'daine'
p565
NsS'laquita'
p566
NsS'bethany'
p567
NsS'melvina'
p568
NsS'solomon'
p569
NsS'vannessa'
p570
NsS'calandra'
p571
NsS'williams'
p572
NsS'kyla'
p573
NsS'ingeborg'
p574
NsS'franchesca'
p575
NsS'rosalva'
p576
NsS'stacey'
p577
NsS'minh'
p578
NsS'darcel'
p579
NsS'rae'
p580
NsS'jacklyn'
p581
NsS'shonna'
p582
NsS'nola'
p583
NsS'ilene'
p584
NsS'georgeanna'
p585
NsS'caleb'
p586
NsS'ginger'
p587
NsS'antonietta'
p588
NsS'angelena'
p589
NsS'melaine'
p590
NsS'sharyl'
p591
NsS'sharyn'
p592
NsS'lula'
p593
NsS'herb'
p594
NsS'chantelle'
p595
NsS'ray'
p596
NsS'carmina'
p597
NsS'denita'
p598
NsS'ilana'
p599
NsS'cesar'
p600
NsS'terrie'
p601
NsS'maximo'
p602
NsS'kaye'
p603
NsS'rudolph'
p604
NsS'chrystal'
p605
NsS'brandon'
p606
NsS'maryrose'
p607
NsS'greta'
p608
NsS'maisie'
p609
NsS'derek'
p610
NsS'mariann'
p611
NsS'iraida'
p612
NsS'lanie'
p613
NsS'corinna'
p614
NsS'shaniqua'
p615
NsS'kiera'
p616
NsS'susie'
p617
NsS'thi'
p618
NsS'florine'
p619
NsS'apryl'
p620
NsS'bruce'
p621
NsS'lilliana'
p622
NsS'waylon'
p623
NsS'lawanda'
p624
NsS'maris'
p625
NsS'michale'
p626
NsS'victoria'
p627
NsS'marin'
p628
NsS'mario'
p629
NsS'torrie'
p630
NsS'flavia'
p631
NsS'shela'
p632
NsS'marie'
p633
NsS'karine'
p634
NsS'maria'
p635
NsS'bradford'
p636
NsS'floy'
p637
NsS'don'
p638
NsS'leora'
p639
NsS'stephnie'
p640
NsS'hanna'
p641
NsS'tashia'
p642
NsS'flor'
p643
NsS'jerrica'
p644
NsS'jolynn'
p645
NsS'lyle'
p646
NsS'sheryl'
p647
NsS'cami'
p648
NsS'yang'
p649
NsS'lyla'
p650
NsS'pearline'
p651
NsS'dagny'
p652
NsS'arla'
p653
NsS'maxima'
p654
NsS'mildred'
p655
NsS'constance'
p656
NsS'dot'
p657
NsS'agnes'
p658
NsS'gladis'
p659
NsS'leoma'
p660
NsS'franklyn'
p661
NsS'toccara'
p662
NsS'marvel'
p663
NsS'terese'
p664
NsS'lewis'
p665
NsS'tequila'
p666
NsS'queen'
p667
NsS'teresa'
p668
NsS'bonnie'
p669
NsS'donella'
p670
NsS'rowena'
p671
NsS'liza'
p672
NsS'asia'
p673
NsS'keesha'
p674
NsS'latina'
p675
NsS'maribeth'
p676
NsS'nevada'
p677
NsS'deedee'
p678
NsS'andera'
p679
NsS'soledad'
p680
NsS'debi'
p681
NsS'louisa'
p682
NsS'carie'
p683
NsS'louise'
p684
NsS'claude'
p685
NsS'rosena'
p686
NsS'yen'
p687
NsS'skye'
p688
NsS'carin'
p689
NsS'thresa'
p690
NsS'aldo'
p691
NsS'rico'
p692
NsS'stephane'
p693
NsS'rick'
p694
NsS'rich'
p695
NsS'stephani'
p696
NsS'maryann'
p697
NsS'florene'
p698
NsS'alvina'
p699
NsS'alda'
p700
NsS'aleen'
p701
NsS'lady'
p702
NsS'monica'
p703
NsS'treena'
p704
NsS'roseanne'
p705
NsS'idalia'
p706
NsS'cecilia'
p707
NsS'roseanna'
p708
NsS'alysia'
p709
NsS'nelida'
p710
NsS'mellissa'
p711
NsS'iluminada'
p712
NsS'danyel'
p713
NsS'christopher'
p714
NsS'tammy'
p715
NsS'priscila'
p716
NsS'iliana'
p717
NsS'johanna'
p718
NsS'lavon'
p719
NsS'sabrina'
p720
NsS'johanne'
p721
NsS'valorie'
p722
NsS'earl'
p723
NsS'sudie'
p724
NsS'ema'
p725
NsS'britteny'
p726
NsS'samella'
p727
NsS'arlie'
p728
NsS'maragaret'
p729
NsS'ramonita'
p730
NsS'kandra'
p731
NsS'adelia'
p732
NsS'jospeh'
p733
NsS'reatha'
p734
NsS'hilma'
p735
NsS'andree'
p736
NsS'bao'
p737
NsS'isreal'
p738
NsS'eufemia'
p739
NsS'saul'
p740
NsS'agripina'
p741
NsS'robbi'
p742
NsS'tasia'
p743
NsS'tommie'
p744
NsS'sage'
p745
NsS'lanette'
p746
NsS'keenan'
p747
NsS'cleo'
p748
NsS'margaretta'
p749
NsS'erika'
p750
NsS'kayce'
p751
NsS'bess'
p752
NsS'angelyn'
p753
NsS'alecia'
p754
NsS'debbra'
p755
NsS'juliet'
p756
NsS'pete'
p757
NsS'delpha'
p758
NsS'tinisha'
p759
NsS'mitch'
p760
NsS'renda'
p761
NsS'melissia'
p762
NsS'sherrie'
p763
NsS'collette'
p764
NsS'keisha'
p765
NsS'melissa'
p766
NsS'mel'
p767
NsS'ira'
p768
NsS'ehtel'
p769
NsS'jamaal'
p770
NsS'quyen'
p771
NsS'jenae'
p772
NsS'huong'
p773
NsS'josefina'
p774
NsS'lamar'
p775
NsS'josefine'
p776
NsS'burt'
p777
NsS'yolonda'
p778
NsS'lupe'
p779
NsS'mei'
p780
NsS'wm'
p781
NsS'tynisha'
p782
NsS'buford'
p783
NsS'louanne'
p784
NsS'vernon'
p785
NsS'felisha'
p786
NsS'rima'
p787
NsS'gwyn'
p788
NsS'chieko'
p789
NsS'lakiesha'
p790
NsS'jonah'
p791
NsS'natalya'
p792
NsS'barbie'
p793
NsS'jeanene'
p794
NsS'han'
p795
NsS'ila'
p796
NsS'meredith'
p797
NsS'phylis'
p798
NsS'marylynn'
p799
NsS'annita'
p800
NsS'edgar'
p801
NsS'shawnda'
p802
NsS'kanesha'
p803
NsS'juanita'
p804
NsS'miyoko'
p805
NsS'brad'
p806
NsS'alease'
p807
NsS'jarrod'
p808
NsS'charlott'
p809
NsS'elinor'
p810
NsS'tona'
p811
NsS'rena'
p812
NsS'ethel'
p813
NsS'karey'
p814
NsS'sherly'
p815
NsS'winnie'
p816
NsS'royal'
p817
NsS'giuseppina'
p818
NsS'bettina'
p819
NsS'jaye'
p820
NsS'loree'
p821
NsS'karen'
p822
NsS'felicidad'
p823
NsS'taren'
p824
NsS'quinn'
p825
NsS'apolonia'
p826
NsS'tony'
p827
NsS'wanetta'
p828
NsS'priscilla'
p829
NsS'emeline'
p830
NsS'sam'
p831
NsS'savanna'
p832
NsS'marth'
p833
NsS'lucrecia'
p834
NsS'gema'
p835
NsS'tiny'
p836
NsS'zachery'
p837
NsS'dulcie'
p838
NsS'gidget'
p839
NsS'elanor'
p840
NsS'kelsi'
p841
NsS'tina'
p842
NsS'basil'
p843
NsS'elza'
p844
NsS'preston'
p845
NsS'riley'
p846
NsS'sacha'
p847
NsS'shavon'
p848
NsS'maudie'
p849
NsS'lakita'
p850
NsS'loma'
p851
NsS'chun'
p852
NsS'anh'
p853
NsS'gemma'
p854
NsS'sunshine'
p855
NsS'mozelle'
p856
NsS'irving'
p857
NsS'ariana'
p858
NsS'anamaria'
p859
NsS'dave'
p860
NsS'starla'
p861
NsS'cheryl'
p862
NsS'emmie'
p863
NsS'bunny'
p864
NsS'joi'
p865
NsS'carlota'
p866
NsS'iesha'
p867
NsS'lionel'
p868
NsS'mohammad'
p869
NsS'adela'
p870
NsS'sheridan'
p871
NsS'hermelinda'
p872
NsS'charisse'
p873
NsS'fallon'
p874
NsS'johnsie'
p875
NsS'neal'
p876
NsS'lashaunda'
p877
NsS'tana'
p878
NsS'joeann'
p879
NsS'concetta'
p880
NsS'vikki'
p881
NsS'micheal'
p882
NsS'lashaun'
p883
NsS'ilona'
p884
NsS'anya'
p885
NsS'milagros'
p886
NsS'della'
p887
NsS'veronica'
p888
NsS'petrina'
p889
NsS'felisa'
p890
NsS'eden'
p891
NsS'tomas'
p892
NsS'audrea'
p893
NsS'remona'
p894
NsS'michele'
p895
NsS'cordelia'
p896
NsS'audrey'
p897
NsS'jess'
p898
NsS'antonina'
p899
NsS'gaylord'
p900
NsS'cinda'
p901
NsS'vonda'
p902
NsS'madonna'
p903
NsS'lottie'
p904
NsS'cathern'
p905
NsS'tresa'
p906
NsS'carisa'
p907
NsS'myrta'
p908
NsS'myrl'
p909
NsS'hong'
p910
NsS'brenna'
p911
NsS'lashawn'
p912
NsS'shila'
p913
NsS'belle'
p914
NsS'niki'
p915
NsS'camellia'
p916
NsS'jerry'
p917
NsS'mathilda'
p918
NsS'ayesha'
p919
NsS'jolene'
p920
NsS'eldridge'
p921
NsS'georgann'
p922
NsS'roland'
p923
NsS'harmony'
p924
NsS'lynelle'
p925
NsS'richelle'
p926
NsS'elliott'
p927
NsS'jerri'
p928
NsS'omar'
p929
NsS'hank'
p930
NsS'lizbeth'
p931
NsS'elli'
p932
NsS'hanh'
p933
NsS'karin'
p934
NsS'issac'
p935
NsS'evie'
p936
NsS'theodore'
p937
NsS'everett'
p938
NsS'quentin'
p939
NsS'theodora'
p940
NsS'lyndon'
p941
NsS'niesha'
p942
NsS'merna'
p943
NsS'dorene'
p944
NsS'kim'
p945
NsS'hans'
p946
NsS'isela'
p947
NsS'tyson'
p948
NsS'darla'
p949
NsS'larissa'
p950
NsS'bari'
p951
NsS'catheryn'
p952
NsS'dylan'
p953
NsS'lucas'
p954
NsS'lamont'
p955
NsS'faustino'
p956
NsS'charlie'
p957
NsS'thu'
p958
NsS'min'
p959
NsS'kyle'
p960
NsS'tran'
p961
NsS'bonny'
p962
NsS'mia'
p963
NsS'ludivina'
p964
NsS'pandora'
p965
NsS'roma'
p966
NsS'taina'
p967
NsS'katelin'
p968
NsS'jean'
p969
NsS'spencer'
p970
NsS'karina'
p971
NsS'angelita'
p972
NsS'gilda'
p973
NsS'julio'
p974
NsS'lawana'
p975
NsS'marya'
p976
NsS'ivette'
p977
NsS'janna'
p978
NsS'kali'
p979
NsS'newton'
p980
NsS'yee'
p981
NsS'tora'
p982
NsS'floria'
p983
NsS'roderick'
p984
NsS'virgina'
p985
NsS'sheena'
p986
NsS'ciara'
p987
NsS'ginette'
p988
NsS'yer'
p989
NsS'mohamed'
p990
NsS'karleen'
p991
NsS'nicolas'
p992
NsS'jose'
p993
NsS'veola'
p994
NsS'eli'
p995
NsS'hal'
p996
NsS'melany'
p997
NsS'julee'
p998
NsS'cornell'
p999
NsS'cherry'
p1000
NsS'ela'
p1001
NsS'josh'
p1002
NsS'keli'
p1003
NsS'janeth'
p1004
NsS'genevieve'
p1005
NsS'jules'
p1006
NsS'trina'
p1007
NsS'janett'
p1008
NsS'mazie'
p1009
NsS'robbyn'
p1010
NsS'trinh'
p1011
NsS'cherri'
p1012
NsS'suzan'
p1013
NsS'gennie'
p1014
NsS'dorthy'
p1015
NsS'jenise'
p1016
NsS'karie'
p1017
NsS'genaro'
p1018
NsS'jonelle'
p1019
NsS'althea'
p1020
NsS'maya'
p1021
NsS'elna'
p1022
NsS'gregg'
p1023
NsS'vanessa'
p1024
NsS'dreama'
p1025
NsS'ambrose'
p1026
NsS'reyna'
p1027
NsS'bailey'
p1028
NsS'glinda'
p1029
NsS'rozella'
p1030
NsS'eboni'
p1031
NsS'berna'
p1032
NsS'elwanda'
p1033
NsS'margherita'
p1034
NsS'madge'
p1035
NsS'krishna'
p1036
NsS'desire'
p1037
NsS'kesha'
p1038
NsS'bobby'
p1039
NsS'alica'
p1040
NsS'birgit'
p1041
NsS'orlando'
p1042
NsS'alice'
p1043
NsS'macie'
p1044
NsS'adria'
p1045
NsS'mirtha'
p1046
NsS'gwendolyn'
p1047
NsS'shirlene'
p1048
NsS'bobbi'
p1049
NsS'amos'
p1050
NsS'clementina'
p1051
NsS'sebastian'
p1052
NsS'annice'
p1053
NsS'dorie'
p1054
NsS'dona'
p1055
NsS'ola'
p1056
NsS'lemuel'
p1057
NsS'meghann'
p1058
NsS'dean'
p1059
NsS'yesenia'
p1060
NsS'jarod'
p1061
NsS'manual'
p1062
NsS'jennifer'
p1063
NsS'rodrick'
p1064
NsS'donald'
p1065
NsS'dorian'
p1066
NsS'neva'
p1067
NsS'rheba'
p1068
NsS'asley'
p1069
NsS'jeffery'
p1070
NsS'tisa'
p1071
NsS'leanora'
p1072
NsS'waneta'
p1073
NsS'gilberte'
p1074
NsS'tempie'
p1075
NsS'reiko'
p1076
NsS'lyda'
p1077
NsS'fidel'
p1078
NsS'sharlene'
p1079
NsS'theresia'
p1080
NsS'lynetta'
p1081
NsS'malika'
p1082
NsS'valene'
p1083
NsS'veda'
p1084
NsS'natisha'
p1085
NsS'sanda'
p1086
NsS'columbus'
p1087
NsS'madalyn'
p1088
NsS'cora'
p1089
NsS'sadie'
p1090
NsS'johnathan'
p1091
NsS'stefan'
p1092
NsS'cori'
p1093
NsS'junita'
p1094
NsS'winona'
p1095
NsS'hung'
p1096
NsS'francene'
p1097
NsS'trish'
p1098
NsS'justa'
p1099
NsS'judson'
p1100
NsS'thersa'
p1101
NsS'cory'
p1102
NsS'yoko'
p1103
NsS'keeley'
p1104
NsS'oren'
p1105
NsS'gigi'
p1106
NsS'shanel'
p1107
NsS'coral'
p1108
NsS'tonda'
p1109
NsS'latrina'
p1110
NsS'consuela'
p1111
NsS'le'
p1112
NsS'jenifer'
p1113
NsS'clementine'
p1114
NsS'tyree'
p1115
NsS'emilio'
p1116
NsS'shantel'
p1117
NsS'emilia'
p1118
NsS'vilma'
p1119
NsS'corrine'
p1120
NsS'emilie'
p1121
NsS'jacques'
p1122
NsS'cathrine'
p1123
NsS'kaila'
p1124
NsS'tyrell'
p1125
NsS'marianela'
p1126
NsS'maxwell'
p1127
NsS'marshall'
p1128
NsS'sergio'
p1129
NsS'lien'
p1130
NsS'sol'
p1131
NsS'soo'
p1132
NsS'fern'
p1133
NsS'jeni'
p1134
NsS'romaine'
p1135
NsS'lauran'
p1136
NsS'jena'
p1137
NsS'eugenie'
p1138
NsS'abel'
p1139
NsS'jene'
p1140
NsS'quiana'
p1141
NsS'ebonie'
p1142
NsS'maxie'
p1143
NsS'jeramy'
p1144
NsS'mariel'
p1145
NsS'tami'
p1146
NsS'wai'
p1147
NsS'branden'
p1148
NsS'steffanie'
p1149
NsS'annabell'
p1150
NsS'theola'
p1151
NsS'nova'
p1152
NsS'jinny'
p1153
NsS'orville'
p1154
NsS'virgil'
p1155
NsS'jani'
p1156
NsS'aurelia'
p1157
NsS'spring'
p1158
NsS'jane'
p1159
NsS'virgie'
p1160
NsS'vernell'
p1161
NsS'jana'
p1162
NsS'tennie'
p1163
NsS'torri'
p1164
NsS'odette'
p1165
NsS'bert'
p1166
NsS'bettie'
p1167
NsS'weldon'
p1168
NsS'elenor'
p1169
NsS'penney'
p1170
NsS'lauretta'
p1171
NsS'kimber'
p1172
NsS'laurette'
p1173
NsS'leilani'
p1174
NsS'melanie'
p1175
NsS'johana'
p1176
NsS'dorthea'
p1177
NsS'verda'
p1178
NsS'mariah'
p1179
NsS'bernice'
p1180
NsS'viva'
p1181
NsS'beckie'
p1182
NsS'kathrin'
p1183
NsS'isis'
p1184
NsS'emil'
p1185
NsS'demetria'
p1186
NsS'randal'
p1187
NsS'merlyn'
p1188
NsS'nicolle'
p1189
NsS'devorah'
p1190
NsS'modesto'
p1191
NsS'noreen'
p1192
NsS'lucila'
p1193
NsS'lucile'
p1194
NsS'merilyn'
p1195
NsS'wilhelmina'
p1196
NsS'michiko'
p1197
NsS'agnus'
p1198
NsS'senaida'
p1199
NsS'geralyn'
p1200
NsS'halina'
p1201
NsS'classie'
p1202
NsS'demetrice'
p1203
NsS'mariela'
p1204
NsS'beaulah'
p1205
NsS'zena'
p1206
NsS'brande'
p1207
NsS'jaimie'
p1208
NsS'ezekiel'
p1209
NsS'eloy'
p1210
NsS'diamond'
p1211
NsS'maile'
p1212
NsS'esteban'
p1213
NsS'cassie'
p1214
NsS'adelaide'
p1215
NsS'tamela'
p1216
NsS'vania'
p1217
NsS'margareta'
p1218
NsS'helga'
p1219
NsS'margarete'
p1220
NsS'zane'
p1221
NsS'holli'
p1222
NsS'zana'
p1223
NsS'brianna'
p1224
NsS'tim'
p1225
NsS'jona'
p1226
NsS'kelsie'
p1227
NsS'brianne'
p1228
NsS'verona'
p1229
NsS'giovanni'
p1230
NsS'delaine'
p1231
NsS'holly'
p1232
NsS'joni'
p1233
NsS'etsuko'
p1234
NsS'tia'
p1235
NsS'tess'
p1236
NsS'humberto'
p1237
NsS'tamala'
p1238
NsS'garland'
p1239
NsS'irma'
p1240
NsS'meghan'
p1241
NsS'ethelene'
p1242
NsS'dustin'
p1243
NsS'cortez'
p1244
NsS'elke'
p1245
NsS'mervin'
p1246
NsS'shawnta'
p1247
NsS'aleshia'
p1248
NsS'marcelino'
p1249
NsS'devon'
p1250
NsS'palma'
p1251
NsS'yulanda'
p1252
NsS'maureen'
p1253
NsS'miranda'
p1254
NsS'adrianne'
p1255
NsS'marceline'
p1256
NsS'omega'
p1257
NsS'ardelia'
p1258
NsS'adrianna'
p1259
NsS'loren'
p1260
NsS'merle'
p1261
NsS'dulce'
p1262
NsS'abraham'
p1263
NsS'domingo'
p1264
NsS'ethelyn'
p1265
NsS'markita'
p1266
NsS'dominga'
p1267
NsS'nancee'
p1268
NsS'cathleen'
p1269
NsS'bambi'
p1270
NsS'damion'
p1271
NsS'margurite'
p1272
NsS'martine'
p1273
NsS'jesusa'
p1274
NsS'janetta'
p1275
NsS'paige'
p1276
NsS'rossana'
p1277
NsS'janette'
p1278
NsS'shaunte'
p1279
NsS'sandie'
p1280
NsS'myung'
p1281
NsS'jadwiga'
p1282
NsS'ron'
p1283
NsS'charley'
p1284
NsS'ulysses'
p1285
NsS'tish'
p1286
NsS'rob'
p1287
NsS'rod'
p1288
NsS'madison'
p1289
NsS'laura'
p1290
NsS'roy'
p1291
NsS'parker'
p1292
NsS'marion'
p1293
NsS'delbert'
p1294
NsS'obdulia'
p1295
NsS'lauri'
p1296
NsS'colleen'
p1297
NsS'delmar'
p1298
NsS'wynell'
p1299
NsS'edelmira'
p1300
NsS'zona'
p1301
NsS'lean'
p1302
NsS'brenda'
p1303
NsS'dewayne'
p1304
NsS'marissa'
p1305
NsS'deedra'
p1306
NsS'necole'
p1307
NsS'sylvie'
p1308
NsS'kathaleen'
p1309
NsS'lorraine'
p1310
NsS'brandie'
p1311
NsS'teofila'
p1312
NsS'cira'
p1313
NsS'librada'
p1314
NsS'latoria'
p1315
NsS'melonie'
p1316
NsS'alana'
p1317
NsS'daryl'
p1318
NsS'hellen'
p1319
NsS'wenona'
p1320
NsS'rosemarie'
p1321
NsS'myles'
p1322
NsS'jeri'
p1323
NsS'onie'
p1324
NsS'hannah'
p1325
NsS'lillia'
p1326
NsS'margarito'
p1327
NsS'eleanora'
p1328
NsS'lorri'
p1329
NsS'tessa'
p1330
NsS'jamar'
p1331
NsS'margarite'
p1332
NsS'deirdre'
p1333
NsS'illa'
p1334
NsS'margarita'
p1335
NsS'henrietta'
p1336
NsS'brinda'
p1337
NsS'peg'
p1338
NsS'cathie'
p1339
NsS'esperanza'
p1340
NsS'charlesetta'
p1341
NsS'valentin'
p1342
NsS'ollie'
p1343
NsS'maricruz'
p1344
NsS'minnie'
p1345
NsS'mathew'
p1346
NsS'georgina'
p1347
NsS'leslee'
p1348
NsS'basilia'
p1349
NsS'clarisa'
p1350
NsS'guy'
p1351
NsS'ashely'
p1352
NsS'olympia'
p1353
NsS'ezra'
p1354
NsS'shanda'
p1355
NsS'ilda'
p1356
NsS'jackqueline'
p1357
NsS'hyon'
p1358
NsS'cheree'
p1359
NsS'trena'
p1360
NsS'angla'
p1361
NsS'colin'
p1362
NsS'shemika'
p1363
NsS'trisha'
p1364
NsS'sherryl'
p1365
NsS'yael'
p1366
NsS'trent'
p1367
NsS'joie'
p1368
NsS'jamison'
p1369
NsS'magaly'
p1370
NsS'laure'
p1371
NsS'laree'
p1372
NsS'lorrine'
p1373
NsS'elton'
p1374
NsS'kandace'
p1375
NsS'corazon'
p1376
NsS'elroy'
p1377
NsS'norris'
p1378
NsS'eliza'
p1379
NsS'cecile'
p1380
NsS'keitha'
p1381
NsS'celestina'
p1382
NsS'ardis'
p1383
NsS'sharen'
p1384
NsS'lakenya'
p1385
NsS'shawana'
p1386
NsS'lucille'
p1387
NsS'sharee'
p1388
NsS'cassi'
p1389
NsS'eliseo'
p1390
NsS'alina'
p1391
NsS'angelina'
p1392
NsS'cordie'
p1393
NsS'aline'
p1394
NsS'angeline'
p1395
NsS'dedra'
p1396
NsS'kami'
p1397
NsS'annalee'
p1398
NsS'blondell'
p1399
NsS'jerica'
p1400
NsS'lucilla'
p1401
NsS'gladys'
p1402
NsS'nakisha'
p1403
NsS'darcie'
p1404
NsS'kenyatta'
p1405
NsS'larraine'
p1406
NsS'chara'
p1407
NsS'alona'
p1408
NsS'darleen'
p1409
NsS'yajaira'
p1410
NsS'nga'
p1411
NsS'terrence'
p1412
NsS'buck'
p1413
NsS'neville'
p1414
NsS'hildegarde'
p1415
NsS'china'
p1416
NsS'jeanine'
p1417
NsS'dusty'
p1418
NsS'my'
p1419
NsS'cicely'
p1420
NsS'doria'
p1421
NsS'shelia'
p1422
NsS'alyssa'
p1423
NsS'pasquale'
p1424
NsS'nereida'
p1425
NsS'lizette'
p1426
NsS'franklin'
p1427
NsS'dusti'
p1428
NsS'phyliss'
p1429
NsS'janice'
p1430
NsS'margot'
p1431
NsS'rafael'
p1432
NsS'doris'
p1433
NsS'pearle'
p1434
NsS'robt'
p1435
NsS'love'
p1436
NsS'allegra'
p1437
NsS'elidia'
p1438
NsS'nicolette'
p1439
NsS'kimberlie'
p1440
NsS'holley'
p1441
NsS'sulema'
p1442
NsS'caron'
p1443
NsS'kimiko'
p1444
NsS'kyong'
p1445
NsS'candice'
p1446
NsS'valrie'
p1447
NsS'shelley'
p1448
NsS'coralee'
p1449
NsS'lovella'
p1450
NsS'trinidad'
p1451
NsS'angelo'
p1452
NsS'jan'
p1453
NsS'layne'
p1454
NsS'russell'
p1455
NsS'bernard'
p1456
NsS'ariel'
p1457
NsS'retha'
p1458
NsS'mittie'
p1459
NsS'lasandra'
p1460
NsS'angela'
p1461
NsS'france'
p1462
NsS'arlinda'
p1463
NsS'shara'
p1464
NsS'roxanna'
p1465
NsS'andy'
p1466
NsS'roxanne'
p1467
NsS'kristian'
p1468
NsS'onita'
p1469
NsS'krystal'
p1470
NsS'dalia'
p1471
NsS'shawanna'
p1472
NsS'athena'
p1473
NsS'rasheeda'
p1474
NsS'milford'
p1475
NsS'kerry'
p1476
NsS'claudette'
p1477
NsS'ivonne'
p1478
NsS'takisha'
p1479
NsS'enda'
p1480
NsS'luvenia'
p1481
NsS'twanda'
p1482
NsS'casey'
p1483
NsS'kerri'
p1484
NsS'carissa'
p1485
NsS'albina'
p1486
NsS'olive'
p1487
NsS'amelia'
p1488
NsS'sharan'
p1489
NsS'claud'
p1490
NsS'ranae'
p1491
NsS'celina'
p1492
NsS'wanda'
p1493
NsS'nakita'
p1494
NsS'malinda'
p1495
NsS'leonida'
p1496
NsS'julius'
p1497
NsS'roscoe'
p1498
NsS'luana'
p1499
NsS'amina'
p1500
NsS'genoveva'
p1501
NsS'jude'
p1502
NsS'luigi'
p1503
NsS'judy'
p1504
NsS'chanda'
p1505
NsS'luella'
p1506
NsS'flo'
p1507
NsS'kendrick'
p1508
NsS'terrell'
p1509
NsS'dorthey'
p1510
NsS'ula'
p1511
NsS'rufus'
p1512
NsS'natasha'
p1513
NsS'corene'
p1514
NsS'enriqueta'
p1515
NsS'christinia'
p1516
NsS'lessie'
p1517
NsS'gaston'
p1518
NsS'karole'
p1519
NsS'kenneth'
p1520
NsS'edna'
p1521
NsS'winston'
p1522
NsS'carroll'
p1523
NsS'amalia'
p1524
NsS'arleen'
p1525
NsS'lakeesha'
p1526
NsS'bethanie'
p1527
NsS'evita'
p1528
NsS'earleen'
p1529
NsS'galen'
p1530
NsS'toshiko'
p1531
NsS'beverley'
p1532
NsS'bessie'
p1533
NsS'tiesha'
p1534
NsS'dennis'
p1535
NsS'manuela'
p1536
NsS'clair'
p1537
NsS'winter'
p1538
NsS'sidney'
p1539
NsS'jamika'
p1540
NsS'kenia'
p1541
NsS'domenica'
p1542
NsS'ping'
p1543
NsS'rosette'
p1544
NsS'meggan'
p1545
NsS'antoine'
p1546
NsS'anneliese'
p1547
NsS'oswaldo'
p1548
NsS'rubin'
p1549
NsS'raye'
p1550
NsS'shasta'
p1551
NsS'beau'
p1552
NsS'rubie'
p1553
NsS'coleman'
p1554
NsS'norine'
p1555
NsS'lorinda'
p1556
NsS'josue'
p1557
NsS'bethel'
p1558
NsS'nell'
p1559
NsS'lanora'
p1560
NsS'in'
p1561
NsS'ena'
p1562
NsS'may'
p1563
NsS'max'
p1564
NsS'cherish'
p1565
NsS'lida'
p1566
NsS'alyse'
p1567
NsS'rupert'
p1568
NsS'charissa'
p1569
NsS'analisa'
p1570
NsS'levi'
p1571
NsS'santana'
p1572
NsS'mae'
p1573
NsS'melia'
p1574
NsS'oleta'
p1575
NsS'mai'
p1576
NsS'krissy'
p1577
NsS'valery'
p1578
NsS'vinita'
p1579
NsS'rickey'
p1580
NsS'loriann'
p1581
NsS'man'
p1582
NsS'olinda'
p1583
NsS'jonnie'
p1584
NsS'johnson'
p1585
NsS'chantay'
p1586
NsS'sheryll'
p1587
NsS'coretta'
p1588
NsS'irwin'
p1589
NsS'benny'
p1590
NsS'su'
p1591
NsS'joane'
p1592
NsS'viki'
p1593
NsS'so'
p1594
NsS'glynis'
p1595
NsS'gerard'
p1596
NsS'hassan'
p1597
NsS'omer'
p1598
NsS'kurt'
p1599
NsS'corrina'
p1600
NsS'neida'
p1601
NsS'michel'
p1602
NsS'shiela'
p1603
NsS'marguerita'
p1604
NsS'maye'
p1605
NsS'jamila'
p1606
NsS'marguerite'
p1607
NsS'tanja'
p1608
NsS'josephine'
p1609
NsS'latarsha'
p1610
NsS'susannah'
p1611
NsS'josephina'
p1612
NsS'shelli'
p1613
NsS'malena'
p1614
NsS'brain'
p1615
NsS'irena'
p1616
NsS'cornelius'
p1617
NsS'irene'
p1618
NsS'tula'
p1619
NsS'rosetta'
p1620
NsS'jenette'
p1621
NsS'felicia'
p1622
NsS'ronda'
p1623
NsS'wallace'
p1624
NsS'tenisha'
p1625
NsS'jin'
p1626
NsS'izola'
p1627
NsS'josphine'
p1628
NsS'jim'
p1629
NsS'tori'
p1630
NsS'zoraida'
p1631
NsS'karlene'
p1632
NsS'tiffiny'
p1633
NsS'oretha'
p1634
NsS'maia'
p1635
NsS'avis'
p1636
NsS'doretha'
p1637
NsS'mckinley'
p1638
NsS'tory'
p1639
NsS'henriette'
p1640
NsS'nettie'
p1641
NsS'tonia'
p1642
NsS'imogene'
p1643
NsS'devora'
p1644
NsS'shayla'
p1645
NsS'evon'
p1646
NsS'lenna'
p1647
NsS'noe'
p1648
NsS'granville'
p1649
NsS'tonita'
p1650
NsS'edmond'
p1651
NsS'griselda'
p1652
NsS'arletha'
p1653
NsS'dannielle'
p1654
NsS'alisa'
p1655
NsS'son'
p1656
NsS'nicolasa'
p1657
NsS'alise'
p1658
NsS'shu'
p1659
NsS'ileana'
p1660
NsS'jamey'
p1661
NsS'emelia'
p1662
NsS'elizbeth'
p1663
NsS'teri'
p1664
NsS'james'
p1665
NsS'shona'
p1666
NsS'jerlene'
p1667
NsS'tera'
p1668
NsS'shakia'
p1669
NsS'leda'
p1670
NsS'magan'
p1671
NsS'fabian'
p1672
NsS'olin'
p1673
NsS'jamel'
p1674
NsS'keri'
p1675
NsS'deandre'
p1676
NsS'charolette'
p1677
NsS'deandra'
p1678
NsS'joella'
p1679
NsS'arlette'
p1680
NsS'arletta'
p1681
NsS'benita'
p1682
NsS'ed'
p1683
NsS'irina'
p1684
NsS'lan'
p1685
NsS'celena'
p1686
NsS'bradley'
p1687
NsS'lizabeth'
p1688
NsS'wava'
p1689
NsS'margeret'
p1690
NsS'kristofer'
p1691
NsS'fredrick'
p1692
NsS'suzanne'
p1693
NsS'angelic'
p1694
NsS'suzanna'
p1695
NsS'isidra'
p1696
NsS'kena'
p1697
NsS'sybil'
p1698
NsS'latoyia'
p1699
NsS'hosea'
p1700
NsS'isidro'
p1701
NsS'evangelina'
p1702
NsS'brigida'
p1703
NsS'pamela'
p1704
NsS'kent'
p1705
NsS'sadye'
p1706
NsS'shenna'
p1707
NsS'shaunda'
p1708
NsS'sau'
p1709
NsS'romana'
p1710
NsS'cary'
p1711
NsS'freida'
p1712
NsS'marybeth'
p1713
NsS'wan'
p1714
NsS'telma'
p1715
NsS'shanell'
p1716
NsS'hiram'
p1717
NsS'tatyana'
p1718
NsS'cari'
p1719
NsS'yuri'
p1720
NsS'carl'
p1721
NsS'brooke'
p1722
NsS'cara'
p1723
NsS'keith'
p1724
NsS'elease'
p1725
NsS'maximina'
p1726
NsS'ora'
p1727
NsS'marla'
p1728
NsS'yuriko'
p1729
NsS'lucius'
p1730
NsS'angle'
p1731
NsS'genevive'
p1732
NsS'yuonne'
p1733
NsS'estella'
p1734
NsS'malcom'
p1735
NsS'wanita'
p1736
NsS'estelle'
p1737
NsS'marlo'
p1738
NsS'lyndsay'
p1739
NsS'evia'
p1740
NsS'lona'
p1741
NsS'yuk'
p1742
NsS'lindsey'
p1743
NsS'essie'
p1744
NsS'gordon'
p1745
NsS'isabell'
p1746
NsS'lorilee'
p1747
NsS'filomena'
p1748
NsS'loretta'
p1749
NsS'nia'
p1750
NsS'fe'
p1751
NsS'tama'
p1752
NsS'merrill'
p1753
NsS'carlyn'
p1754
NsS'ezequiel'
p1755
NsS'carri'
p1756
NsS'velda'
p1757
NsS'rachel'
p1758
NsS'shondra'
p1759
NsS'vivienne'
p1760
NsS'katina'
p1761
NsS'stefany'
p1762
NsS'carry'
p1763
NsS'tamara'
p1764
NsS'emiko'
p1765
NsS'prince'
p1766
NsS'george'
p1767
NsS'raguel'
p1768
NsS'dalene'
p1769
NsS'gertrude'
p1770
NsS'ian'
p1771
NsS'shandra'
p1772
NsS'gertrud'
p1773
NsS'francoise'
p1774
NsS'anderson'
p1775
NsS'vennie'
p1776
NsS'carson'
p1777
NsS'guadalupe'
p1778
NsS'bettye'
p1779
NsS'chastity'
p1780
NsS'alfred'
p1781
NsS'jeannette'
p1782
NsS'ayana'
p1783
NsS'desmond'
p1784
NsS'nelia'
p1785
NsS'londa'
p1786
NsS'maragret'
p1787
NsS'roseann'
p1788
NsS'rosario'
p1789
NsS'clemente'
p1790
NsS'hue'
p1791
NsS'tenesha'
p1792
NsS'shirlee'
p1793
NsS'shawn'
p1794
NsS'season'
p1795
NsS'demetrius'
p1796
NsS'earnestine'
p1797
NsS'alan'
p1798
NsS'albertine'
p1799
NsS'kai'
p1800
NsS'aurelio'
p1801
NsS'hillary'
p1802
NsS'tessie'
p1803
NsS'thad'
p1804
NsS'pamila'
p1805
NsS'shirley'
p1806
NsS'noriko'
p1807
NsS'raeann'
p1808
NsS'thao'
p1809
NsS'kennith'
p1810
NsS'jeannine'
p1811
NsS'milton'
p1812
NsS'hoyt'
p1813
NsS'alethia'
p1814
NsS'gil'
p1815
NsS'nathan'
p1816
NsS'rosalinda'
p1817
NsS'eleonore'
p1818
NsS'bertram'
p1819
NsS'lissa'
p1820
NsS'bryanna'
p1821
NsS'sherley'
p1822
NsS'lenita'
p1823
NsS'glynda'
p1824
NsS'velva'
p1825
NsS'terrance'
p1826
NsS'tilda'
p1827
NsS'sophie'
p1828
NsS'teressa'
p1829
NsS'sophia'
p1830
NsS'delia'
p1831
NsS'madelene'
p1832
NsS'michell'
p1833
NsS'rene'
p1834
NsS'ana'
p1835
NsS'angel'
p1836
NsS'sal'
p1837
NsS'craig'
p1838
NsS'ann'
p1839
NsS'bennie'
p1840
NsS'mellisa'
p1841
NsS'ladawn'
p1842
NsS'nidia'
p1843
NsS'danial'
p1844
NsS'winifred'
p1845
NsS'jewell'
p1846
NsS'maybell'
p1847
NsS'adele'
p1848
NsS'nickole'
p1849
NsS'hershel'
p1850
NsS'allen'
p1851
NsS'trula'
p1852
NsS'adell'
p1853
NsS'kevin'
p1854
NsS'cassandra'
p1855
NsS'neomi'
p1856
NsS'rolanda'
p1857
NsS'gustavo'
p1858
NsS'zoe'
p1859
NsS'nikole'
p1860
NsS'annelle'
p1861
NsS'orval'
p1862
NsS'laureen'
p1863
NsS'tanesha'
p1864
NsS'jefferson'
p1865
NsS'criselda'
p1866
NsS'lael'
p1867
NsS'zandra'
p1868
NsS'shiloh'
p1869
NsS'genevie'
p1870
NsS'many'
p1871
NsS'natividad'
p1872
NsS'caterina'
p1873
NsS'rosina'
p1874
NsS'malissa'
p1875
NsS'santiago'
p1876
NsS'armando'
p1877
NsS'arvilla'
p1878
NsS'norman'
p1879
NsS'maynard'
p1880
NsS'loyd'
p1881
NsS'kyung'
p1882
NsS'traci'
p1883
NsS'sherman'
p1884
NsS'herschel'
p1885
NsS'woodrow'
p1886
NsS'anissa'
p1887
NsS'roxie'
p1888
NsS'marcelene'
p1889
NsS'zoila'
p1890
NsS'nolan'
p1891
NsS'etha'
p1892
NsS'nadine'
p1893
NsS'danille'
p1894
NsS'tracy'
p1895
NsS'beth'
p1896
NsS'elmira'
p1897
NsS'kathyrn'
p1898
NsS'clarine'
p1899
NsS'michelle'
p1900
NsS'rosalia'
p1901
NsS'adrien'
p1902
NsS'yukiko'
p1903
NsS'rosalie'
p1904
NsS'lenny'
p1905
NsS'bobette'
p1906
NsS'aisha'
p1907
NsS'ouida'
p1908
NsS'phil'
p1909
NsS'renae'
p1910
NsS'sherell'
p1911
NsS'renay'
p1912
NsS'teena'
p1913
NsS'nadene'
p1914
NsS'corrin'
p1915
NsS'ismael'
p1916
NsS'julienne'
p1917
NsS'reed'
p1918
NsS'lindsay'
p1919
NsS'tena'
p1920
NsS'corrie'
p1921
NsS'julieta'
p1922
NsS'maxine'
p1923
NsS'melania'
p1924
NsS'german'
p1925
NsS'adolfo'
p1926
NsS'nancie'
p1927
NsS'linh'
p1928
NsS'akiko'
p1929
NsS'madalene'
p1930
NsS'percy'
p1931
NsS'ling'
p1932
NsS'troy'
p1933
NsS'leeanne'
p1934
NsS'fletcher'
p1935
NsS'yanira'
p1936
NsS'jaqueline'
p1937
NsS'julene'
p1938
NsS'shon'
p1939
NsS'alanna'
p1940
NsS'merlin'
p1941
NsS'renaldo'
p1942
NsS'jenell'
p1943
NsS'stormy'
p1944
NsS'laquanda'
p1945
NsS'cammy'
p1946
NsS'dick'
p1947
NsS'mitzi'
p1948
NsS'rochell'
p1949
NsS'shavonda'
p1950
NsS'otis'
p1951
NsS'lorenzo'
p1952
NsS'madeline'
p1953
NsS'nadia'
p1954
NsS'sierra'
p1955
NsS'lorenza'
p1956
NsS'caroline'
p1957
NsS'carolina'
p1958
NsS'loyce'
p1959
NsS'norene'
p1960
NsS'chantal'
p1961
NsS'cindie'
p1962
NsS'yelena'
p1963
NsS'samuel'
p1964
NsS'arnita'
p1965
NsS'hailey'
p1966
NsS'denisha'
p1967
NsS'lannie'
p1968
NsS'talitha'
p1969
NsS'neta'
p1970
NsS'mafalda'
p1971
NsS'yvonne'
p1972
NsS'chelsey'
p1973
NsS'annamae'
p1974
NsS'malvina'
p1975
NsS'beatris'
p1976
NsS'harriette'
p1977
NsS'alita'
p1978
NsS'dianna'
p1979
NsS'joya'
p1980
NsS'dianne'
p1981
NsS'carolann'
p1982
NsS'stacia'
p1983
NsS'vannesa'
p1984
NsS'stacie'
p1985
NsS'ahmad'
p1986
NsS'rayford'
p1987
NsS'sina'
p1988
NsS'mattie'
p1989
NsS'miles'
p1990
NsS'roger'
p1991
NsS'jenice'
p1992
NsS'bong'
p1993
NsS'lorita'
p1994
NsS'muriel'
p1995
NsS'branda'
p1996
NsS'joye'
p1997
NsS'amanda'
p1998
NsS'virgen'
p1999
NsS'shalonda'
p2000
NsS'marlena'
p2001
NsS'shaneka'
p2002
NsS'marlene'
p2003
NsS'marnie'
p2004
NsS'coletta'
p2005
NsS'rhona'
p2006
NsS'teisha'
p2007
NsS'danae'
p2008
NsS'colette'
p2009
NsS'isabel'
p2010
NsS'ceola'
p2011
NsS'sean'
p2012
NsS'kermit'
p2013
NsS'aleta'
p2014
NsS'stanley'
p2015
NsS'lilia'
p2016
NsS'modesta'
p2017
NsS'keshia'
p2018
NsS'felecia'
p2019
NsS'dexter'
p2020
NsS'lonnie'
p2021
NsS'bernita'
p2022
NsS'marlana'
p2023
NsS'cassey'
p2024
NsS'crystal'
p2025
NsS'zola'
p2026
NsS'harvey'
p2027
NsS'willard'
p2028
NsS'jesenia'
p2029
NsS'lorina'
p2030
NsS'leandro'
p2031
NsS'un'
p2032
NsS'karmen'
p2033
NsS'vanna'
p2034
NsS'berenice'
p2035
NsS'kristal'
p2036
NsS'nida'
p2037
NsS'babara'
p2038
NsS'gaylene'
p2039
NsS'nathaniel'
p2040
NsS'mandi'
p2041
NsS'ima'
p2042
NsS'tania'
p2043
NsS'dottie'
p2044
NsS'laurinda'
p2045
NsS'august'
p2046
NsS'odelia'
p2047
NsS'ricarda'
p2048
NsS'marvin'
p2049
NsS'carolee'
p2050
NsS'kristan'
p2051
NsS'timmy'
p2052
NsS'lettie'
p2053
NsS'clayton'
p2054
NsS'sirena'
p2055
NsS'jo'
p2056
NsS'marvis'
p2057
NsS'tobias'
p2058
NsS'mariette'
p2059
NsS'cedric'
p2060
NsS'monnie'
p2061
NsS'evelina'
p2062
NsS'janeen'
p2063
NsS'kirsten'
p2064
NsS'leanna'
p2065
NsS'tamra'
p2066
NsS'javier'
p2067
NsS'dominque'
p2068
NsS'daria'
p2069
NsS'mona'
p2070
NsS'dario'
p2071
NsS'darin'
p2072
NsS'nila'
p2073
NsS'shakita'
p2074
NsS'rozanne'
p2075
NsS'ninfa'
p2076
NsS'lorie'
p2077
NsS'mana'
p2078
NsS'elijah'
p2079
NsS'loria'
p2080
NsS'berry'
p2081
NsS'migdalia'
p2082
NsS'wilton'
p2083
NsS'arnoldo'
p2084
NsS'chaya'
p2085
NsS'ji'
p2086
NsS'annalisa'
p2087
NsS'earline'
p2088
NsS'britni'
p2089
NsS'merry'
p2090
NsS'maire'
p2091
NsS'lacie'
p2092
NsS'shery'
p2093
NsS'gerda'
p2094
NsS'kiara'
p2095
NsS'ermelinda'
p2096
NsS'selene'
p2097
NsS'nanette'
p2098
NsS'werner'
p2099
NsS'iola'
p2100
NsS'cyndi'
p2101
NsS'renita'
p2102
NsS'shin'
p2103
NsS'nicola'
p2104
NsS'ghislaine'
p2105
NsS'marquetta'
p2106
NsS'nicole'
p2107
NsS'zetta'
p2108
NsS'tonisha'
p2109
NsS'oliver'
p2110
NsS'lidia'
p2111
NsS'mara'
p2112
NsS'lyman'
p2113
NsS'howard'
p2114
NsS'barry'
p2115
NsS'millard'
p2116
NsS'porsche'
p2117
NsS'kallie'
p2118
NsS'carey'
p2119
NsS'mark'
p2120
NsS'victorina'
p2121
NsS'cecelia'
p2122
NsS'jessenia'
p2123
NsS'scot'
p2124
NsS'claris'
p2125
NsS'marinda'
p2126
NsS'soraya'
p2127
NsS'pamala'
p2128
NsS'dessie'
p2129
NsS'marx'
p2130
NsS'mary'
p2131
NsS'tawnya'
p2132
NsS'odessa'
p2133
NsS'roselyn'
p2134
NsS'lakeshia'
p2135
NsS'mertie'
p2136
NsS'bernardina'
p2137
NsS'andres'
p2138
NsS'elvis'
p2139
NsS'tangela'
p2140
NsS'rubi'
p2141
NsS'andrew'
p2142
NsS'corliss'
p2143
NsS'isaac'
p2144
NsS'jessika'
p2145
NsS'tamie'
p2146
NsS'burl'
p2147
NsS'elvin'
p2148
NsS'elvia'
p2149
NsS'dahlia'
p2150
NsS'andrea'
p2151
NsS'ruby'
p2152
NsS'pattie'
p2153
NsS'ivelisse'
p2154
NsS'buster'
p2155
NsS'polly'
p2156
NsS'isabella'
p2157
NsS'taunya'
p2158
NsS'loris'
p2159
NsS'margit'
p2160
NsS'isabelle'
p2161
NsS'aleida'
p2162
NsS'merrie'
p2163
NsS'hai'
p2164
NsS'keva'
p2165
NsS'arnold'
p2166
NsS'buena'
p2167
NsS'shanta'
p2168
NsS'alva'
p2169
NsS'hattie'
p2170
NsS'margie'
p2171
NsS'antony'
p2172
NsS'novella'
p2173
NsS'larita'
p2174
NsS'arnulfo'
p2175
NsS'noel'
p2176
NsS'iva'
p2177
NsS'susana'
p2178
NsS'luetta'
p2179
NsS'chau'
p2180
NsS'candace'
p2181
NsS'marcel'
p2182
NsS'yuette'
p2183
NsS'susy'
p2184
NsS'kenya'
p2185
NsS'claretha'
p2186
NsS'pamella'
p2187
NsS'ivy'
p2188
NsS'marti'
p2189
NsS'adelaida'
p2190
NsS'pat'
p2191
NsS'florinda'
p2192
NsS'lelia'
p2193
NsS'edwin'
p2194
NsS'raymonde'
p2195
NsS'layla'
p2196
NsS'carmelina'
p2197
NsS'mammie'
p2198
NsS'fatima'
p2199
NsS'jacquetta'
p2200
NsS'lizzette'
p2201
NsS'dwana'
p2202
NsS'otto'
p2203
NsS'damon'
p2204
NsS'lita'
p2205
NsS'pam'
p2206
NsS'aura'
p2207
NsS'sterling'
p2208
NsS'noble'
p2209
NsS'jeffrey'
p2210
NsS'karoline'
p2211
NsS'belia'
p2212
NsS'leonie'
p2213
NsS'fidela'
p2214
NsS'kelvin'
p2215
NsS'shanelle'
p2216
NsS'deidra'
p2217
NsS'josette'
p2218
NsS'elina'
p2219
NsS'deidre'
p2220
NsS'shala'
p2221
NsS'lavelle'
p2222
NsS'harris'
p2223
NsS'masako'
p2224
NsS'laurene'
p2225
NsS'lisette'
p2226
NsS'loreen'
p2227
NsS'mayra'
p2228
NsS'reinaldo'
p2229
NsS'marquerite'
p2230
NsS'tova'
p2231
NsS'kerrie'
p2232
NsS'shantae'
p2233
NsS'bryce'
p2234
NsS'landon'
p2235
NsS'shaquana'
p2236
NsS'markus'
p2237
NsS'ivey'
p2238
NsS'barbera'
p2239
NsS'darcey'
p2240
NsS'kattie'
p2241
NsS'sherie'
p2242
NsS'christene'
p2243
NsS'alfreda'
p2244
NsS'na'
p2245
NsS'alfredo'
p2246
NsS'genie'
p2247
NsS'antonetta'
p2248
NsS'latricia'
p2249
NsS'leonila'
p2250
NsS'antonette'
p2251
NsS'summer'
p2252
NsS'danita'
p2253
NsS'frankie'
p2254
NsS'noah'
p2255
NsS'toby'
p2256
NsS'alissa'
p2257
NsS'gavin'
p2258
NsS'roxane'
p2259
NsS'jule'
p2260
NsS'roxana'
p2261
NsS'harrison'
p2262
NsS'ethyl'
p2263
NsS'roxann'
p2264
NsS'nam'
p2265
NsS'tobi'
p2266
NsS'laveta'
p2267
NsS'hayley'
p2268
NsS'ngoc'
p2269
NsS'leta'
p2270
NsS'kimberli'
p2271
NsS'crysta'
p2272
NsS'cyndy'
p2273
NsS'sheldon'
p2274
NsS'kirk'
p2275
NsS'twyla'
p2276
NsS'rose'
p2277
NsS'jarred'
p2278
NsS'rosa'
p2279
NsS'lahoma'
p2280
NsS'tonya'
p2281
NsS'kimberly'
p2282
NsS'shirly'
p2283
NsS'rosy'
p2284
NsS'annamarie'
p2285
NsS'jong'
p2286
NsS'yoshie'
p2287
NsS'kareen'
p2288
NsS'regena'
p2289
NsS'ross'
p2290
NsS'ami'
p2291
NsS'jake'
p2292
NsS'bernardo'
p2293
NsS'marcus'
p2294
NsS'kirby'
p2295
NsS'selma'
p2296
NsS'earle'
p2297
NsS'virginia'
p2298
NsS'annamaria'
p2299
NsS'amy'
p2300
NsS'earnest'
p2301
NsS'zula'
p2302
NsS'yasmine'
p2303
NsS'elvina'
p2304
NsS'tillie'
p2305
NsS'jerold'
p2306
NsS'moises'
p2307
NsS'crystle'
p2308
NsS'rebecca'
p2309
NsS'yasuko'
p2310
NsS'rocky'
p2311
NsS'katherin'
p2312
NsS'christina'
p2313
NsS'patrica'
p2314
NsS'christine'
p2315
NsS'patrice'
p2316
NsS'rubye'
p2317
NsS'patrick'
p2318
NsS'una'
p2319
NsS'odilia'
p2320
NsS'nu'
p2321
NsS'rachael'
p2322
NsS'whitley'
p2323
NsS'jacquiline'
p2324
NsS'clay'
p2325
NsS'beverly'
p2326
NsS'vena'
p2327
NsS'giuseppe'
p2328
NsS'aurea'
p2329
NsS'ardella'
p2330
NsS'pok'
p2331
NsS'zackary'
p2332
NsS'lacresha'
p2333
NsS'karrie'
p2334
NsS'karissa'
p2335
NsS'lucy'
p2336
NsS'britt'
p2337
NsS'myong'
p2338
NsS'eddie'
p2339
NsS'gregoria'
p2340
NsS'eusebio'
p2341
NsS'audrie'
p2342
NsS'guillermo'
p2343
NsS'dionne'
p2344
NsS'joan'
p2345
NsS'cristina'
p2346
NsS'garnett'
p2347
NsS'divina'
p2348
NsS'regina'
p2349
NsS'dawna'
p2350
NsS'ellis'
p2351
NsS'exie'
p2352
NsS'regine'
p2353
NsS'charleen'
p2354
NsS'willis'
p2355
NsS'scottie'
p2356
NsS'dudley'
p2357
NsS'alonzo'
p2358
NsS'marybelle'
p2359
NsS'ellie'
p2360
NsS'jeana'
p2361
NsS'tomiko'
p2362
NsS'silvana'
p2363
NsS'willia'
p2364
NsS'kacy'
p2365
NsS'willie'
p2366
NsS'alfonzo'
p2367
NsS'porter'
p2368
NsS'sixta'
p2369
NsS'brigid'
p2370
NsS'vernice'
p2371
NsS'providencia'
p2372
NsS'kamilah'
p2373
NsS'vivian'
p2374
NsS'angella'
p2375
NsS'shayne'
p2376
NsS'ingrid'
p2377
NsS'lavera'
p2378
NsS'francie'
p2379
NsS'shayna'
p2380
NsS'marline'
p2381
NsS'jennette'
p2382
NsS'marhta'
p2383
NsS'venita'
p2384
NsS'artie'
p2385
NsS'piper'
p2386
NsS'evelin'
p2387
NsS'raul'
p2388
NsS'magaret'
p2389
NsS'josie'
p2390
NsS'aide'
p2391
NsS'sherill'
p2392
NsS'shantelle'
p2393
NsS'rodolfo'
p2394
NsS'william'
p2395
NsS'ok'
p2396
NsS'carina'
p2397
NsS'walton'
p2398
NsS'terica'
p2399
NsS'alaina'
p2400
NsS'marc'
p2401
NsS'otha'
p2402
NsS'brittany'
p2403
NsS'karan'
p2404
NsS'shawnna'
p2405
NsS'salley'
p2406
NsS'alejandrina'
p2407
NsS'abdul'
p2408
NsS'marisela'
p2409
NsS'annemarie'
p2410
NsS'gregory'
p2411
NsS'charmain'
p2412
NsS'mamie'
p2413
NsS'brittani'
p2414
NsS'kory'
p2415
NsS'amber'
p2416
NsS'teddy'
p2417
NsS'clarice'
p2418
NsS'marleen'
p2419
NsS'marcell'
p2420
NsS'wendie'
p2421
NsS'darrel'
p2422
NsS'zulema'
p2423
NsS'mari'
p2424
NsS'penelope'
p2425
NsS'versie'
p2426
NsS'marjorie'
p2427
NsS'jasper'
p2428
NsS'gary'
p2429
NsS'burton'
p2430
NsS'wade'
p2431
NsS'denae'
p2432
NsS'stacee'
p2433
NsS'sumiko'
p2434
NsS'marg'
p2435
NsS'eustolia'
p2436
NsS'louann'
p2437
NsS'bronwyn'
p2438
NsS'domenic'
p2439
NsS'gussie'
p2440
NsS'kindra'
p2441
NsS'leisha'
p2442
NsS'edgardo'
p2443
NsS'lon'
p2444
NsS'shelly'
p2445
NsS'cordell'
p2446
NsS'anisa'
p2447
NsS'liana'
p2448
NsS'hee'
p2449
NsS'erasmo'
p2450
NsS'missy'
p2451
NsS'berniece'
p2452
NsS'marilu'
p2453
NsS'lou'
p2454
NsS'racquel'
p2455
NsS'valencia'
p2456
NsS'marcelina'
p2457
NsS'wilbert'
p2458
NsS'shawna'
p2459
NsS'vicente'
p2460
NsS'jacquelyn'
p2461
NsS'delilah'
p2462
NsS'vicenta'
p2463
NsS'rachelle'
p2464
NsS'lourie'
p2465
NsS'jerrie'
p2466
NsS'elfreda'
p2467
NsS'suzette'
p2468
NsS'keira'
p2469
NsS'laine'
p2470
NsS'adriene'
p2471
NsS'margart'
p2472
NsS'eliz'
p2473
NsS'synthia'
p2474
NsS'caren'
p2475
NsS'mica'
p2476
NsS'madie'
p2477
NsS'minna'
p2478
NsS'marni'
p2479
NsS'stanford'
p2480
NsS'fredda'
p2481
NsS'lorelei'
p2482
NsS'benton'
p2483
NsS'milan'
p2484
NsS'marna'
p2485
NsS'salome'
p2486
NsS'freddy'
p2487
NsS'adriane'
p2488
NsS'shauna'
p2489
NsS'miguel'
p2490
NsS'laverna'
p2491
NsS'adriana'
p2492
NsS'marchelle'
p2493
NsS'manuel'
p2494
NsS'russ'
p2495
NsS'marisa'
p2496
NsS'toney'
p2497
NsS'olevia'
p2498
NsS'sherlene'
p2499
NsS'glenda'
p2500
NsS'nery'
p2501
NsS'mallory'
p2502
NsS'taylor'
p2503
NsS'alethea'
p2504
NsS'johnny'
p2505
NsS'viviana'
p2506
NsS'ai'
p2507
NsS'azucena'
p2508
NsS'felix'
p2509
NsS'al'
p2510
NsS'gertude'
p2511
NsS'an'
p2512
NsS'shanita'
p2513
NsS'elisha'
p2514
NsS'magdalen'
p2515
NsS'arcelia'
p2516
NsS'xochitl'
p2517
NsS'jennell'
p2518
NsS'belva'
p2519
NsS'russel'
p2520
NsS'vashti'
p2521
NsS'johnna'
p2522
NsS'angelica'
p2523
NsS'cristie'
p2524
NsS'lashonda'
p2525
NsS'letha'
p2526
NsS'heather'
p2527
NsS'mika'
p2528
NsS'vasiliki'
p2529
NsS'hiroko'
p2530
NsS'vickie'
p2531
NsS'zelda'
p2532
NsS'tifany'
p2533
NsS'rolland'
p2534
NsS'renetta'
p2535
NsS'antwan'
p2536
NsS'genna'
p2537
NsS'effie'
p2538
NsS'marita'
p2539
NsS'pearly'
p2540
NsS'brandi'
p2541
NsS'estell'
p2542
NsS'desirae'
p2543
NsS'bobbye'
p2544
NsS'terri'
p2545
NsS'epifania'
p2546
NsS'gaynell'
p2547
NsS'rhett'
p2548
NsS'miriam'
p2549
NsS'estela'
p2550
NsS'terra'
p2551
NsS'walker'
p2552
NsS'brandy'
p2553
NsS'marcie'
p2554
NsS'sharita'
p2555
NsS'beulah'
p2556
NsS'terry'
p2557
NsS'chris'
p2558
NsS'velvet'
p2559
NsS'rosalyn'
p2560
NsS'shantay'
p2561
NsS'domonique'
p2562
NsS'natalie'
p2563
NsS'ileen'
p2564
NsS'casie'
p2565
NsS'natalia'
p2566
NsS'lelah'
p2567
NsS'tanner'
p2568
NsS'mariko'
p2569
NsS'mireya'
p2570
NsS'raphael'
p2571
NsS'corey'
p2572
NsS'booker'
p2573
NsS'nelson'
p2574
NsS'adan'
p2575
NsS'arianne'
p2576
NsS'shizue'
p2577
NsS'deandrea'
p2578
NsS'lupita'
p2579
NsS'kristle'
p2580
NsS'edwina'
p2581
NsS'carlie'
p2582
NsS'kacie'
p2583
NsS'monte'
p2584
NsS'emile'
p2585
NsS'anette'
p2586
NsS'larue'
p2587
NsS'ali'
p2588
NsS'laci'
p2589
NsS'nikita'
p2590
NsS'mardell'
p2591
NsS'blanche'
p2592
NsS'teodora'
p2593
NsS'zina'
p2594
NsS'mireille'
p2595
NsS'cameron'
p2596
NsS'lacy'
p2597
NsS'sung'
p2598
NsS'jerome'
p2599
NsS'emily'
p2600
NsS'elfriede'
p2601
NsS'jessie'
p2602
NsS'brittaney'
p2603
NsS'elfrieda'
p2604
NsS'jessia'
p2605
NsS'ty'
p2606
NsS'kandice'
p2607
NsS'tu'
p2608
NsS'lesha'
p2609
NsS'felton'
p2610
NsS'jeneva'
p2611
NsS'daniella'
p2612
NsS'yetta'
p2613
NsS'aaron'
p2614
NsS'foster'
p2615
NsS'danielle'
p2616
NsS'elias'
p2617
NsS'alberto'
p2618
NsS'alberta'
p2619
NsS'angele'
p2620
NsS'hortencia'
p2621
NsS'linn'
p2622
NsS'ta'
p2623
NsS'eulalia'
p2624
NsS'esther'
p2625
NsS'candis'
p2626
NsS'song'
p2627
NsS'donette'
p2628
NsS'talisha'
p2629
NsS'donetta'
p2630
NsS'billie'
p2631
NsS'vera'
p2632
NsS'nichelle'
p2633
NsS'frederic'
p2634
NsS'herta'
p2635
NsS'socorro'
p2636
NsS'candida'
p2637
NsS'elena'
p2638
NsS'codi'
p2639
NsS'chasity'
p2640
NsS'makeda'
p2641
NsS'elene'
p2642
NsS'vern'
p2643
NsS'kasha'
p2644
NsS'carlena'
p2645
NsS'sharolyn'
p2646
NsS'alma'
p2647
NsS'broderick'
p2648
NsS'carlene'
p2649
NsS'louis'
p2650
NsS'adina'
p2651
NsS'antone'
p2652
NsS'yasmin'
p2653
NsS'voncile'
p2654
NsS'sang'
p2655
NsS'donovan'
p2656
NsS'cleta'
p2657
NsS'harry'
p2658
NsS'lisa'
p2659
NsS'colene'
p2660
NsS'magdalene'
p2661
NsS'venessa'
p2662
NsS'lise'
p2663
NsS'louie'
p2664
NsS'maggie'
p2665
NsS'alene'
p2666
NsS'valeri'
p2667
NsS'nona'
p2668
NsS'alena'
p2669
NsS'gayle'
p2670
NsS'nichol'
p2671
NsS'mila'
p2672
NsS'ted'
p2673
NsS'robyn'
p2674
NsS'dalton'
p2675
NsS'cornelia'
p2676
NsS'lynwood'
p2677
NsS'sherice'
p2678
NsS'gertha'
p2679
NsS'reina'
p2680
NsS'dian'
p2681
NsS'sue'
p2682
NsS'catrice'
p2683
NsS'abe'
p2684
NsS'richard'
p2685
NsS'jeanice'
p2686
NsS'nana'
p2687
NsS'sun'
p2688
NsS'magnolia'
p2689
NsS'danilo'
p2690
NsS'suk'
p2691
NsS'jeniffer'
p2692
NsS'hassie'
p2693
NsS'pamelia'
p2694
NsS'tanya'
p2695
NsS'jacquelynn'
p2696
NsS'willetta'
p2697
NsS'garth'
p2698
NsS'leia'
p2699
NsS'leif'
p2700
NsS'deborah'
p2701
NsS'maryam'
p2702
NsS'lavonda'
p2703
NsS'jacquline'
p2704
NsS'christian'
p2705
NsS'jutta'
p2706
NsS'drusilla'
p2707
NsS'christi'
p2708
NsS'eilene'
p2709
NsS'therese'
p2710
NsS'kaitlin'
p2711
NsS'nena'
p2712
NsS'theresa'
p2713
NsS'twana'
p2714
NsS'christa'
p2715
NsS'mitchel'
p2716
NsS'kimi'
p2717
NsS'lilla'
p2718
NsS'jonas'
p2719
NsS'mckenzie'
p2720
NsS'christy'
p2721
NsS'saturnina'
p2722
NsS'shamika'
p2723
NsS'janyce'
p2724
NsS'teresia'
p2725
NsS'samatha'
p2726
NsS'edra'
p2727
NsS'lanny'
p2728
NsS'tosha'
p2729
NsS'cathi'
p2730
NsS'reena'
p2731
NsS'jackie'
p2732
NsS'albertina'
p2733
NsS'stella'
p2734
NsS'amberly'
p2735
NsS'delphine'
p2736
NsS'agatha'
p2737
NsS'ervin'
p2738
NsS'rory'
p2739
NsS'dalila'
p2740
NsS'cathy'
p2741
NsS'jamee'
p2742
NsS'rebbecca'
p2743
NsS'myra'
p2744
NsS'agustin'
p2745
NsS'caroyln'
p2746
NsS'jeanette'
p2747
NsS'mallie'
p2748
NsS'alexandria'
p2749
NsS'toya'
p2750
NsS'jaunita'
p2751
NsS'ferne'
p2752
NsS'donnie'
p2753
NsS'letitia'
p2754
NsS'azzie'
p2755
NsS'ruthanne'
p2756
NsS'delois'
p2757
NsS'dirk'
p2758
NsS'aimee'
p2759
NsS'catarina'
p2760
NsS'shantell'
p2761
NsS'jeanetta'
p2762
NsS'lajuana'
p2763
NsS'florence'
p2764
NsS'clifford'
p2765
NsS'silva'
p2766
NsS'jayme'
p2767
NsS'marietta'
p2768
NsS'kaitlyn'
p2769
NsS'kittie'
p2770
NsS'gricelda'
p2771
NsS'beula'
p2772
NsS'maddie'
p2773
NsS'kamala'
p2774
NsS'digna'
p2775
NsS'pearl'
p2776
NsS'micha'
p2777
NsS'mui'
p2778
NsS'milo'
p2779
NsS'nathanael'
p2780
NsS'mirna'
p2781
NsS'fonda'
p2782
NsS'rhea'
p2783
NsS'kathey'
p2784
NsS'brandee'
p2785
NsS'mora'
p2786
NsS'beatriz'
p2787
NsS'verena'
p2788
NsS'yolando'
p2789
NsS'israel'
p2790
NsS'tonie'
p2791
NsS'freda'
p2792
NsS'ramona'
p2793
NsS'filiberto'
p2794
NsS'carlita'
p2795
NsS'hertha'
p2796
NsS'dion'
p2797
NsS'yolande'
p2798
NsS'nieves'
p2799
NsS'mira'
p2800
NsS'leonard'
p2801
NsS'yolanda'
p2802
NsS'juliette'
p2803
NsS'lazaro'
p2804
NsS'floyd'
p2805
NsS'julietta'
p2806
NsS'azalee'
p2807
NsS'renea'
p2808
NsS'kendra'
p2809
NsS'daysi'
p2810
NsS'georgeann'
p2811
NsS'gudrun'
p2812
NsS'lavona'
p2813
NsS'delphia'
p2814
NsS'tuan'
p2815
NsS'lavone'
p2816
NsS'salvador'
p2817
NsS'miesha'
p2818
NsS'damien'
p2819
NsS'phillip'
p2820
NsS'phillis'
p2821
NsS'berta'
p2822
NsS'georgine'
p2823
NsS'roosevelt'
p2824
NsS'nina'
p2825
NsS'del'
p2826
NsS'alane'
p2827
NsS'morgan'
p2828
NsS'kristopher'
p2829
NsS'cathryn'
p2830
NsS'adalberto'
p2831
NsS'deb'
p2832
NsS'leola'
p2833
NsS'dee'
p2834
NsS'abram'
p2835
NsS'lavina'
p2836
NsS'shari'
p2837
NsS'renato'
p2838
NsS'marget'
p2839
NsS'nickolas'
p2840
NsS'mercedez'
p2841
NsS'alba'
p2842
NsS'renate'
p2843
NsS'lisabeth'
p2844
NsS'renata'
p2845
NsS'autumn'
p2846
NsS'salena'
p2847
NsS'cherilyn'
p2848
NsS'iona'
p2849
NsS'celine'
p2850
NsS'numbers'
p2851
NsS'ione'
p2852
NsS'cherie'
p2853
NsS'jeanie'
p2854
NsS'jaymie'
p2855
NsS'gino'
p2856
NsS'robena'
p2857
NsS'khadijah'
p2858
NsS'clint'
p2859
NsS'kecia'
p2860
NsS'willena'
p2861
NsS'lachelle'
p2862
NsS'hugo'
p2863
NsS'hugh'
p2864
NsS'willene'
p2865
NsS'alyson'
p2866
NsS'treasa'
p2867
NsS'jalisa'
p2868
NsS'jere'
p2869
NsS'gisela'
p2870
NsS'gisele'
p2871
NsS'reyes'
p2872
NsS'clotilde'
p2873
NsS'tari'
p2874
NsS'sabine'
p2875
NsS'felicita'
p2876
NsS'horacio'
p2877
NsS'sabina'
p2878
NsS'jarrett'
p2879
NsS'prudence'
p2880
NsS'cortney'
p2881
NsS'wiley'
p2882
NsS'brett'
p2883
NsS'rosanne'
p2884
NsS'lovetta'
p2885
NsS'arica'
p2886
NsS'amparo'
p2887
NsS'rosanna'
p2888
NsS'arturo'
p2889
NsS'rudy'
p2890
NsS'jerilyn'
p2891
NsS'linnie'
p2892
NsS'angila'
p2893
NsS'aletha'
p2894
NsS'jodie'
p2895
NsS'brady'
p2896
NsS'susan'
p2897
NsS'leroy'
p2898
NsS'marlon'
p2899
NsS'chante'
p2900
NsS'lashanda'
p2901
NsS'ozell'
p2902
NsS'trevor'
p2903
NsS'marica'
p2904
NsS'kirstie'
p2905
NsS'melodie'
p2906
NsS'shani'
p2907
NsS'kirstin'
p2908
NsS'lashawnda'
p2909
NsS'tijuana'
p2910
NsS'paz'
p2911
NsS'elinore'
p2912
NsS'carmelo'
p2913
NsS'signe'
p2914
NsS'dayle'
p2915
NsS'leigh'
p2916
NsS'sook'
p2917
NsS'bryon'
p2918
NsS'emmanuel'
p2919
NsS'soon'
p2920
NsS'carmela'
p2921
NsS'ashanti'
p2922
NsS'logan'
p2923
NsS'shellie'
p2924
NsS'scott'
p2925
NsS'gertrudis'
p2926
NsS'hollis'
p2927
NsS'rana'
p2928
NsS'wilmer'
p2929
NsS'cammie'
p2930
NsS'emerita'
p2931
NsS'remedios'
p2932
NsS'leanne'
p2933
NsS'nannie'
p2934
NsS'janessa'
p2935
NsS'melisa'
p2936
NsS'alla'
p2937
NsS'gerald'
p2938
NsS'lai'
p2939
NsS'yan'
p2940
NsS'abbey'
p2941
NsS'ricardo'
p2942
NsS'leticia'
p2943
NsS'brittney'
p2944
NsS'mable'
p2945
NsS'edmund'
p2946
NsS'mandie'
p2947
NsS'stephen'
p2948
NsS'kasandra'
p2949
NsS'argentina'
p2950
NsS'tomika'
p2951
NsS'retta'
p2952
NsS'lacey'
p2953
NsS'yi'
p2954
NsS'lowell'
p2955
NsS'tanna'
p2956
NsS'curtis'
p2957
NsS'kalyn'
p2958
NsS'tamisha'
p2959
NsS'bernetta'
p2960
NsS'hunter'
p2961
NsS'susann'
p2962
NsS'katheryn'
p2963
NsS'dayna'
p2964
NsS'rosalind'
p2965
NsS'rosaline'
p2966
NsS'olivia'
p2967
NsS'rosalina'
p2968
NsS'wally'
p2969
NsS'kaleigh'
p2970
NsS'sharonda'
p2971
NsS'vaughn'
p2972
NsS'yu'
p2973
NsS'johnie'
p2974
NsS'bryan'
p2975
NsS'kaci'
p2976
NsS'robbie'
p2977
NsS'kasey'
p2978
NsS'oliva'
p2979
NsS'dionna'
p2980
NsS'ranee'
p2981
NsS'robbin'
p2982
NsS'denny'
p2983
NsS'eleanor'
p2984
NsS'chandra'
p2985
NsS'milda'
p2986
NsS'lynda'
p2987
NsS'corina'
p2988
NsS'fairy'
p2989
NsS'corine'
p2990
NsS'marry'
p2991
NsS'lorriane'
p2992
NsS'neil'
p2993
NsS'khalilah'
p2994
NsS'annika'
p2995
NsS'tiffany'
p2996
NsS'thomasena'
p2997
NsS'haley'
p2998
NsS'meagan'
p2999
NsS'dia'
p3000
NsS'gilberto'
p3001
NsS'setsuko'
p3002
NsS'mackenzie'
p3003
NsS'katrina'
p3004
NsS'willette'
p3005
NsS'todd'
p3006
NsS'tiffani'
p3007
NsS'mayola'
p3008
NsS'randolph'
p3009
NsS'suanne'
p3010
NsS'sade'
p3011
NsS'charlsie'
p3012
NsS'gus'
p3013
NsS'lola'
p3014
NsS'perry'
p3015
NsS'quincy'
p3016
NsS'ernie'
p3017
NsS'marcia'
p3018
NsS'lizeth'
p3019
NsS'robert'
p3020
NsS'yevette'
p3021
NsS'cristin'
p3022
NsS'kira'
p3023
NsS'douglas'
p3024
NsS'latanya'
p3025
NsS'hayden'
p3026
NsS'dacia'
p3027
NsS'yaeko'
p3028
NsS'cherlyn'
p3029
NsS'claribel'
p3030
NsS'samantha'
p3031
NsS'darline'
p3032
NsS'clora'
p3033
NsS'haydee'
p3034
NsS'laurice'
p3035
NsS'benjamin'
p3036
NsS'latrice'
p3037
NsS'jeremiah'
p3038
NsS'lawrence'
p3039
NsS'florance'
p3040
NsS'matha'
p3041
NsS'dung'
p3042
NsS'rickie'
p3043
NsS'darius'
p3044
NsS'johnnie'
p3045
NsS'coralie'
p3046
NsS'dorsey'
p3047
NsS'rikki'
p3048
NsS'kathrine'
p3049
NsS'randall'
p3050
NsS'joannie'
p3051
NsS'lissette'
p3052
NsS'gearldine'
p3053
NsS'svetlana'
p3054
NsS'debby'
p3055
NsS'leonardo'
p3056
NsS'sylvester'
p3057
NsS'kiesha'
p3058
NsS'delicia'
p3059
NsS'lesia'
p3060
NsS'sondra'
p3061
NsS'lavinia'
p3062
NsS'deja'
p3063
NsS'daisy'
p3064
NsS'mahalia'
p3065
NsS'adena'
p3066
NsS'bernie'
p3067
NsS'ardith'
p3068
NsS'major'
p3069
NsS'margorie'
p3070
NsS'dina'
p3071
NsS'carline'
p3072
NsS'dino'
p3073
NsS'valentina'
p3074
NsS'patience'
p3075
NsS'elden'
p3076
NsS'myrtice'
p3077
NsS'valentine'
p3078
NsS'bernadette'
p3079
NsS'inell'
p3080
NsS'hedy'
p3081
NsS'dong'
p3082
NsS'pablo'
p3083
NsS'nohemi'
p3084
NsS'tonette'
p3085
NsS'evonne'
p3086
NsS'miss'
p3087
NsS'maple'
p3088
NsS'donn'
p3089
NsS'lue'
p3090
NsS'noma'
p3091
NsS'elba'
p3092
NsS'benedict'
p3093
NsS'deanne'
p3094
NsS'imelda'
p3095
NsS'micheline'
p3096
NsS'deanna'
p3097
NsS'michelina'
p3098
NsS'leatrice'
p3099
NsS'eddy'
p3100
NsS'jacquelin'
p3101
NsS'jetta'
p3102
NsS'jed'
p3103
NsS'billi'
p3104
NsS'breanne'
p3105
NsS'breanna'
p3106
NsS'jarvis'
p3107
NsS'teresita'
p3108
NsS'elsy'
p3109
NsS'barabara'
p3110
NsS'shandi'
p3111
NsS'hermila'
p3112
NsS'valeria'
p3113
NsS'norma'
p3114
NsS'jamie'
p3115
NsS'shavonne'
p3116
NsS'jovan'
p3117
NsS'magali'
p3118
NsS'jordan'
p3119
NsS'marjory'
p3120
NsS'ernestine'
p3121
NsS'osvaldo'
p3122
NsS'grace'
p3123
NsS'ernestina'
p3124
NsS'deshawn'
p3125
NsS'karon'
p3126
NsS'king'
p3127
NsS'karol'
p3128
NsS'kerstin'
p3129
NsS'kina'
p3130
NsS'maricela'
p3131
NsS'jen'
p3132
NsS'zachary'
p3133
NsS'shawanda'
p3134
NsS'sunni'
p3135
NsS'dann'
p3136
NsS'libby'
p3137
NsS'greg'
p3138
NsS'nathalie'
p3139
NsS'ellena'
p3140
NsS'lourdes'
p3141
NsS'dane'
p3142
NsS'candance'
p3143
NsS'corrinne'
p3144
NsS'dana'
p3145
NsS'kisha'
p3146
NsS'mickey'
p3147
NsS'charlotte'
p3148
NsS'shalon'
p3149
NsS'wilhemina'
p3150
NsS'fredricka'
p3151
NsS'noella'
p3152
NsS'kary'
p3153
NsS'agueda'
p3154
NsS'noelle'
p3155
NsS'gale'
p3156
NsS'garfield'
p3157
NsS'kara'
p3158
NsS'oneida'
p3159
NsS'donnetta'
p3160
NsS'oda'
p3161
NsS'fiona'
p3162
NsS'kari'
p3163
NsS'melva'
p3164
NsS'debera'
p3165
NsS'karl'
p3166
NsS'blanch'
p3167
NsS'alexia'
p3168
NsS'wilson'
p3169
NsS'winnifred'
p3170
NsS'lia'
p3171
NsS'shelby'
p3172
NsS'malorie'
p3173
NsS'blanca'
p3174
NsS'lin'
p3175
NsS'candra'
p3176
NsS'pinkie'
p3177
NsS'sherwood'
p3178
NsS'alonso'
p3179
NsS'dorla'
p3180
NsS'dierdre'
p3181
NsS'bobbie'
p3182
NsS'emmaline'
p3183
NsS'sherry'
p3184
NsS'jacinto'
p3185
NsS'giselle'
p3186
NsS'liz'
p3187
NsS'shelba'
p3188
NsS'mose'
p3189
NsS'portia'
p3190
NsS'cherelle'
p3191
NsS'herlinda'
p3192
NsS'christena'
p3193
NsS'serena'
p3194
NsS'ronna'
p3195
NsS'janae'
p3196
NsS'amal'
p3197
NsS'marilou'
p3198
NsS'vincenzo'
p3199
NsS'macy'
p3200
NsS'ronni'
p3201
NsS'freddie'
p3202
NsS'lilli'
p3203
NsS'narcisa'
p3204
NsS'sandra'
p3205
NsS'daphne'
p3206
NsS'alpha'
p3207
NsS'kay'
p3208
NsS'anjanette'
p3209
NsS'mack'
p3210
NsS'laila'
p3211
NsS'ronny'
p3212
NsS'deane'
p3213
NsS'ka'
p3214
NsS'lyndsey'
p3215
NsS'deana'
p3216
NsS'jayne'
p3217
NsS'elois'
p3218
NsS'ashlea'
p3219
NsS'carmon'
p3220
NsS'deann'
p3221
NsS'genia'
p3222
NsS'denese'
p3223
NsS'chester'
p3224
NsS'marisha'
p3225
NsS'larisa'
p3226
NsS'shalanda'
p3227
NsS'jaquelyn'
p3228
NsS'thomas'
p3229
NsS'bernadine'
p3230
NsS'juliann'
p3231
NsS'tambra'
p3232
NsS'frances'
p3233
NsS'rachal'
p3234
NsS'jeanett'
p3235
NsS'sari'
p3236
NsS'melodi'
p3237
NsS'juliana'
p3238
NsS'keila'
p3239
NsS'ardell'
p3240
NsS'juliane'
p3241
NsS'naoma'
p3242
NsS'yadira'
p3243
NsS'leandra'
p3244
NsS'muoi'
p3245
NsS'naomi'
p3246
NsS'melody'
p3247
NsS'letty'
p3248
NsS'candelaria'
p3249
NsS'kyoko'
p3250
NsS'rachele'
p3251
NsS'rosella'
p3252
NsS'albertha'
p3253
NsS'randi'
p3254
NsS'roselle'
p3255
NsS'duncan'
p3256
NsS'loan'
p3257
NsS'brigette'
p3258
NsS'randa'
p3259
NsS'chiquita'
p3260
NsS'adaline'
p3261
NsS'loida'
p3262
NsS'jacquelyne'
p3263
NsS'randy'
p3264
NsS'colby'
p3265
NsS'gertie'
p3266
NsS'cassy'
p3267
NsS'carmine'
p3268
NsS'joseph'
p3269
NsS'moses'
p3270
NsS'darwin'
p3271
NsS'christal'
p3272
NsS'kaley'
p3273
NsS'douglass'
p3274
NsS'cristobal'
p3275
NsS'tricia'
p3276
NsS'tyron'
p3277
NsS'toshia'
p3278
NsS'mercy'
p3279
NsS'kemberly'
p3280
NsS'luke'
p3281
NsS'natacha'
p3282
NsS'alicia'
p3283
NsS'sunny'
p3284
NsS'louella'
p3285
NsS'temeka'
p3286
NsS'mariano'
p3287
NsS'ardath'
p3288
NsS'akilah'
p3289
NsS'williemae'
p3290
NsS'lonny'
p3291
NsS'twila'
p3292
NsS'suzie'
p3293
NsS'rocco'
p3294
NsS'catina'
p3295
NsS'bradly'
p3296
NsS'jeanne'
p3297
NsS'cherly'
p3298
NsS'brendan'
p3299
NsS'lois'
p3300
NsS'kiyoko'
p3301
NsS'dante'
p3302
NsS'floretta'
p3303
NsS'carlotta'
p3304
NsS'brenton'
p3305
NsS'li'
p3306
NsS'maryjane'
p3307
NsS'ellyn'
p3308
NsS'vincent'
p3309
NsS'nickie'
p3310
NsS'lesa'
p3311
NsS'cole'
p3312
NsS'beryl'
p3313
NsS'charline'
p3314
NsS'stefania'
p3315
NsS'art'
p3316
NsS'bart'
p3317
NsS'almeda'
p3318
NsS'stefanie'
p3319
NsS'vina'
p3320
NsS'alline'
p3321
NsS'jade'
p3322
NsS'esmeralda'
p3323
NsS'nakesha'
p3324
NsS'byron'
p3325
NsS'jada'
p3326
NsS'kylie'
p3327
NsS'ara'
p3328
NsS'see'
p3329
NsS'elnora'
p3330
NsS'reba'
p3331
NsS'jacelyn'
p3332
NsS'tonja'
p3333
NsS'angie'
p3334
NsS'deloras'
p3335
NsS'karena'
p3336
NsS'allie'
p3337
NsS'trey'
p3338
NsS'paulene'
p3339
NsS'zella'
p3340
NsS'inge'
p3341
NsS'davina'
p3342
NsS'demarcus'
p3343
NsS'deadra'
p3344
NsS'madelaine'
p3345
NsS'joaquina'
p3346
NsS'september'
p3347
NsS'nestor'
p3348
NsS'jasmin'
p3349
NsS'myriam'
p3350
NsS'rita'
p3351
NsS'tam'
p3352
NsS'clarinda'
p3353
NsS'alesia'
p3354
NsS'rosie'
p3355
NsS'tristan'
p3356
NsS'dani'
p3357
NsS'rosia'
p3358
NsS'brynn'
p3359
NsS'rosio'
p3360
NsS'leida'
p3361
NsS'latia'
p3362
NsS'erna'
p3363
NsS'helaine'
p3364
NsS'catharine'
p3365
NsS'kimbery'
p3366
NsS'kimberely'
p3367
NsS'ike'
p3368
NsS'rosenda'
p3369
NsS'vickey'
p3370
NsS'korey'
p3371
NsS'marilyn'
p3372
NsS'carylon'
p3373
NsS'annis'
p3374
NsS'sharla'
p3375
NsS'delmer'
p3376
NsS'jocelyn'
p3377
NsS'opal'
p3378
NsS'ashlie'
p3379
NsS'patti'
p3380
NsS'roman'
p3381
NsS'shizuko'
p3382
NsS'emogene'
p3383
NsS'annie'
p3384
NsS'bridgette'
p3385
NsS'danette'
p3386
NsS'rosendo'
p3387
NsS'fermin'
p3388
NsS'marvella'
p3389
NsS'wei'
p3390
NsS'patty'
p3391
NsS'wilburn'
p3392
NsS'rosamaria'
p3393
NsS'marilee'
p3394
NsS'danyell'
p3395
NsS'elliot'
p3396
NsS'jeff'
p3397
NsS'darlena'
p3398
NsS'celeste'
p3399
NsS'veronika'
p3400
NsS'darlene'
p3401
NsS'leon'
p3402
NsS'larhonda'
p3403
NsS'sueann'
p3404
NsS'chloe'
p3405
NsS'lashon'
p3406
NsS'merideth'
p3407
NsS'verline'
p3408
NsS'sammy'
p3409
NsS'alesha'
p3410
NsS'esta'
p3411
NsS'devin'
p3412
NsS'reta'
p3413
NsS'tanisha'
p3414
NsS'karla'
p3415
NsS'frida'
p3416
NsS'vertie'
p3417
NsS'geoffrey'
p3418
NsS'karly'
p3419
NsS'shaunna'
p3420
NsS'brice'
p3421
NsS'sheron'
p3422
NsS'mina'
p3423
NsS'meaghan'
p3424
NsS'joselyn'
p3425
NsS'stephaine'
p3426
NsS'bridgett'
p3427
NsS'tamera'
p3428
NsS'walter'
p3429
NsS'kathy'
p3430
NsS'gay'
p3431
NsS'samual'
p3432
NsS'lulu'
p3433
NsS'sherise'
p3434
NsS'ada'
p3435
NsS'margarett'
p3436
NsS'tracie'
p3437
NsS'else'
p3438
NsS'anthony'
p3439
NsS'fritz'
p3440
NsS'delora'
p3441
NsS'katherine'
p3442
NsS'whitney'
p3443
NsS'ming'
p3444
NsS'marylou'
p3445
NsS'nancey'
p3446
NsS'rebbeca'
p3447
NsS'georgia'
p3448
NsS'conception'
p3449
NsS'georgie'
p3450
NsS'errol'
p3451
NsS'keven'
p3452
NsS'bill'
p3453
NsS'shyla'
p3454
NsS'wyatt'
p3455
NsS'luanne'
p3456
NsS'vernita'
p3457
NsS'seema'
p3458
NsS'luciana'
p3459
NsS'luciano'
p3460
NsS'dominic'
p3461
NsS'kareem'
p3462
NsS'leland'
p3463
NsS'robin'
p3464
NsS'gala'
p3465
NsS'nathanial'
p3466
NsS'lenard'
p3467
NsS'oralee'
p3468
NsS'ossie'
p3469
NsS'aliza'
p3470
NsS'phebe'
p3471
NsS'lynette'
p3472
NsS'von'
p3473
NsS'owen'
p3474
NsS'kurtis'
p3475
NsS'xiao'
p3476
NsS'jeffry'
p3477
NsS'carletta'
p3478
NsS'despina'
p3479
NsS'leann'
p3480
NsS'darrell'
p3481
NsS'tammara'
p3482
NsS'fannie'
p3483
NsS'tamesha'
p3484
NsS'brittni'
p3485
NsS'monroe'
p3486
NsS'chase'
p3487
NsS'eliana'
p3488
NsS'ignacio'
p3489
NsS'santos'
p3490
NsS'margret'
p3491
NsS'salina'
p3492
NsS'almeta'
p3493
NsS'elana'
p3494
NsS'grant'
p3495
NsS'latonya'
p3496
NsS'jeanelle'
p3497
NsS'jannie'
p3498
NsS'ulrike'
p3499
NsS'ignacia'
p3500
NsS'shira'
p3501
NsS'marcelle'
p3502
NsS'hester'
p3503
NsS'marcella'
p3504
NsS'viola'
p3505
NsS'shae'
p3506
NsS'ester'
p3507
NsS'rosana'
p3508
NsS'ruth'
p3509
NsS'shan'
p3510
NsS'shirl'
p3511
NsS'nydia'
p3512
NsS'fredia'
p3513
NsS'allyson'
p3514
NsS'catrina'
p3515
NsS'zita'
p3516
NsS'chassidy'
p3517
NsS'darell'
p3518
NsS'blair'
p3519
NsS'maurine'
p3520
NsS'jesica'
p3521
NsS'stacy'
p3522
NsS'eura'
p3523
NsS'gabriela'
p3524
NsS'latashia'
p3525
NsS'vergie'
p3526
NsS'jammie'
p3527
NsS'mavis'
p3528
NsS'bob'
p3529
NsS'staci'
p3530
NsS'hildegard'
p3531
NsS'casandra'
p3532
NsS'doreen'
p3533
NsS'kelle'
p3534
NsS'daren'
p3535
NsS'kelli'
p3536
NsS'chana'
p3537
NsS'zulma'
p3538
NsS'gabriele'
p3539
NsS'reginald'
p3540
NsS'marylyn'
p3541
NsS'soila'
p3542
NsS'somer'
p3543
NsS'corinne'
p3544
NsS'dotty'
p3545
NsS'loise'
p3546
NsS'belen'
p3547
NsS'salvatore'
p3548
NsS'sherri'
p3549
NsS'kelly'
p3550
NsS'mikaela'
p3551
NsS'leona'
p3552
NsS'youlanda'
p3553
NsS'josefa'
p3554
NsS'earlene'
p3555
NsS'leone'
p3556
NsS'rosaria'
p3557
NsS'jodee'
p3558
NsS'alessandra'
p3559
NsS'alvin'
p3560
NsS'euna'
p3561
NsS'ailene'
p3562
NsS'joesph'
p3563
NsS'mao'
p3564
NsS'lester'
p3565
NsS'thaddeus'
p3566
NsS'drema'
p3567
NsS'hilaria'
p3568
NsS'lynell'
p3569
NsS'hilario'
p3570
NsS'chanelle'
p3571
NsS'forrest'
p3572
NsS'dara'
p3573
NsS'shaina'
p3574
NsS'shirleen'
p3575
NsS'serafina'
p3576
NsS'myrtie'
p3577
NsS'melina'
p3578
NsS'adrienne'
p3579
NsS'madlyn'
p3580
NsS'melinda'
p3581
NsS'kathline'
p3582
NsS'nikki'
p3583
NsS'doreatha'
p3584
NsS'andria'
p3585
NsS'patria'
p3586
NsS'myrtis'
p3587
NsS'mistie'
p3588
NsS'cuc'
p3589
NsS'lavonna'
p3590
NsS'sydney'
p3591
NsS'courtney'
p3592
NsS'lisha'
p3593
NsS'rebeca'
p3594
NsS'huey'
p3595
NsS'easter'
p3596
NsS'shaquita'
p3597
NsS'arden'
p3598
NsS'jacinta'
p3599
NsS'lashunda'
p3600
NsS'minerva'
p3601
NsS'armida'
p3602
NsS'marco'
p3603
NsS'lovie'
p3604
NsS'marci'
p3605
NsS'camelia'
p3606
NsS'reita'
p3607
NsS'trista'
p3608
NsS'nicholle'
p3609
NsS'velia'
p3610
NsS'fernanda'
p3611
NsS'kasi'
p3612
NsS'marcy'
p3613
NsS'winford'
p3614
NsS'vanda'
p3615
NsS'monika'
p3616
NsS'alida'
p3617
NsS'richie'
p3618
NsS'thurman'
p3619
NsS'jenelle'
p3620
NsS'elouise'
p3621
NsS'katharyn'
p3622
NsS'mariam'
p3623
NsS'marian'
p3624
NsS'moira'
p3625
NsS'sebrina'
p3626
NsS'fernande'
p3627
NsS'donny'
p3628
NsS'marlin'
p3629
NsS'danelle'
p3630
NsS'arthur'
p3631
NsS'lucretia'
p3632
NsS'donna'
p3633
NsS'vesta'
p3634
NsS'ivan'
p3635
NsS'alexandra'
p3636
NsS'rigoberto'
p3637
NsS'kendal'
p3638
NsS'kacey'
p3639
NsS'tanika'
p3640
NsS'lucien'
p3641
NsS'piedad'
p3642
NsS'fredericka'
p3643
NsS'mirella'
p3644
NsS'cherise'
p3645
NsS'erma'
p3646
NsS'pierre'
p3647
NsS'kasie'
p3648
NsS'melita'
p3649
NsS'brendon'
p3650
NsS'stepanie'
p3651
NsS'alphonso'
p3652
NsS'rosamond'
p3653
NsS'alyce'
p3654
NsS'norah'
p3655
NsS'gracia'
p3656
NsS'alphonse'
p3657
NsS'brent'
p3658
NsS'gracie'
p3659
NsS'jimmie'
p3660
NsS'ursula'
p3661
NsS'meda'
p3662
NsS'adah'
p3663
NsS'debra'
p3664
NsS'lexie'
p3665
NsS'lara'
p3666
NsS'pei'
p3667
NsS'concha'
p3668
NsS'anne'
p3669
NsS'isiah'
p3670
NsS'temple'
p3671
NsS'anna'
p3672
NsS'earlie'
p3673
NsS'shena'
p3674
NsS'florencia'
p3675
NsS'kieth'
p3676
NsS'keiko'
p3677
NsS'darnell'
p3678
NsS'adelle'
p3679
NsS'nella'
p3680
NsS'kelsey'
p3681
NsS'nelle'
p3682
NsS'fae'
p3683
NsS'nelly'
p3684
NsS'andreas'
p3685
NsS'kam'
p3686
NsS'santa'
p3687
NsS'lorean'
p3688
NsS'santo'
p3689
NsS'christeen'
p3690
NsS'carol'
p3691
NsS'leonel'
p3692
NsS'contessa'
p3693
NsS'ardelle'
p3694
NsS'joetta'
p3695
NsS'vernetta'
p3696
NsS'faith'
p3697
NsS'delisa'
p3698
NsS'alycia'
p3699
NsS'amado'
p3700
NsS'lavenia'
p3701
NsS'amada'
p3702
NsS'alleen'
p3703
NsS'cathey'
p3704
NsS'page'
p3705
NsS'arnette'
p3706
NsS'maude'
p3707
NsS'regenia'
p3708
NsS'stuart'
p3709
NsS'janay'
p3710
NsS'dwight'
p3711
NsS'ida'
p3712
NsS'elane'
p3713
NsS'sherilyn'
p3714
NsS'jimmy'
p3715
NsS'clinton'
p3716
NsS'kassie'
p3717
NsS'myesha'
p3718
NsS'kristel'
p3719
NsS'nenita'
p3720
NsS'rhiannon'
p3721
NsS'elvira'
p3722
NsS'laraine'
p3723
NsS'jonna'
p3724
NsS'hilde'
p3725
NsS'joelle'
p3726
NsS'carlton'
p3727
NsS'gillian'
p3728
NsS'jannette'
p3729
NsS'steven'
p3730
NsS'johna'
p3731
NsS'chanell'
p3732
NsS'katia'
p3733
NsS'dwayne'
p3734
NsS'johnette'
p3735
NsS'alison'
p3736
NsS'katie'
p3737
NsS'loni'
p3738
NsS'sonny'
p3739
NsS'leisa'
p3740
NsS'latasha'
p3741
NsS'sona'
p3742
NsS'edmundo'
p3743
NsS'kathleen'
p3744
NsS'herminia'
p3745
NsS'kyra'
p3746
NsS'long'
p3747
NsS'diedra'
p3748
NsS'cassondra'
p3749
NsS'chauncey'
p3750
NsS'corie'
p3751
NsS'isobel'
p3752
NsS'charmaine'
p3753
NsS'chu'
p3754
NsS'lakendra'
p3755
NsS'karri'
p3756
NsS'johnathon'
p3757
NsS'tommye'
p3758
NsS'leopoldo'
p3759
NsS'boyd'
p3760
NsS'vivan'
p3761
NsS'delfina'
p3762
NsS'vernie'
p3763
NsS'jayna'
p3764
NsS'vernia'
p3765
NsS'lino'
p3766
NsS'lesli'
p3767
NsS'sherron'
p3768
NsS'larry'
p3769
NsS'lydia'
p3770
NsS'ines'
p3771
NsS'violeta'
p3772
NsS'sibyl'
p3773
NsS'junior'
p3774
NsS'lina'
p3775
NsS'jacki'
p3776
NsS'josiah'
p3777
NsS'denisse'
p3778
NsS'kellie'
p3779
NsS'erick'
p3780
NsS'erich'
p3781
NsS'ute'
p3782
NsS'elida'
p3783
NsS'kazuko'
p3784
NsS'paola'
p3785
NsS'theron'
p3786
NsS'erica'
p3787
NsS'margrett'
p3788
NsS'deangelo'
p3789
NsS'velma'
p3790
NsS'malik'
p3791
NsS'georgetta'
p3792
NsS'chelsea'
p3793
NsS'georgette'
p3794
NsS'bell'
p3795
NsS'curt'
p3796
NsS'hannelore'
p3797
NsS'elizabet'
p3798
NsS'verlie'
p3799
NsS'chad'
p3800
NsS'chae'
p3801
NsS'hedwig'
p3802
NsS'suellen'
p3803
NsS'chan'
p3804
NsS'shanice'
p3805
NsS'cassidy'
p3806
NsS'kathryn'
p3807
NsS'chas'
p3808
NsS'siobhan'
p3809
NsS'ammie'
p3810
NsS'cristine'
p3811
NsS'launa'
p3812
NsS'lyn'
p3813
NsS'graham'
p3814
NsS'allyn'
p3815
NsS'wynona'
p3816
NsS'dorcas'
p3817
NsS'elda'
p3818
NsS'daron'
p3819
NsS'elayne'
p3820
NsS'tomeka'
p3821
NsS'audria'
p3822
NsS'tara'
p3823
NsS'charita'
p3824
NsS'nan'
p3825
NsS'ruthe'
p3826
NsS'nick'
p3827
NsS'ellen'
p3828
NsS'simonne'
p3829
NsS'edwardo'
p3830
NsS'kaylene'
p3831
NsS'raina'
p3832
NsS'saundra'
p3833
NsS'myrle'
p3834
NsS'nguyet'
p3835
NsS'laticia'
p3836
NsS'takako'
p3837
NsS'dale'
p3838
NsS'lucio'
p3839
NsS'lena'
p3840
NsS'kori'
p3841
NsS'janella'
p3842
NsS'lucie'
p3843
NsS'cecila'
p3844
NsS'janelle'
p3845
NsS'lucia'
p3846
NsS'bianca'
p3847
NsS'tianna'
p3848
NsS'willian'
p3849
NsS'evan'
p3850
NsS'carmel'
p3851
NsS'crissy'
p3852
NsS'zora'
p3853
NsS'lang'
p3854
NsS'georgene'
p3855
NsS'lane'
p3856
NsS'krystin'
p3857
NsS'nilda'
p3858
NsS'lana'
p3859
NsS'nerissa'
p3860
NsS'geraldine'
p3861
NsS'lani'
p3862
NsS'heath'
p3863
NsS'delta'
p3864
NsS'merrilee'
p3865
NsS'aiko'
p3866
NsS'karma'
p3867
NsS'sallie'
p3868
NsS'ashton'
p3869
NsS'kristen'
p3870
NsS'leah'
p3871
NsS'sachiko'
p3872
NsS'katy'
p3873
NsS'darrin'
p3874
NsS'ilse'
p3875
NsS'jason'
p3876
NsS'janita'
p3877
NsS'libbie'
p3878
NsS'cynthia'
p3879
NsS'teodoro'
p3880
NsS'jacqualine'
p3881
NsS'hilda'
p3882
NsS'steve'
p3883
NsS'kati'
p3884
NsS'windy'
p3885
NsS'vinnie'
p3886
NsS'yessenia'
p3887
NsS'wilber'
p3888
NsS'detra'
p3889
NsS'torie'
p3890
NsS'cyrstal'
p3891
NsS'moon'
p3892
NsS'kate'
p3893
NsS'cody'
p3894
NsS'lorette'
p3895
NsS'rhonda'
p3896
NsS'simon'
p3897
NsS'tammera'
p3898
NsS'syreeta'
p3899
NsS'zaida'
p3900
NsS'tyesha'
p3901
NsS'sena'
p3902
NsS'junie'
p3903
NsS'young'
p3904
NsS'georgiana'
p3905
NsS'arie'
p3906
NsS'afton'
p3907
NsS'laronda'
p3908
NsS'phuong'
p3909
NsS'sharri'
p3910
NsS'odis'
p3911
NsS'celia'
p3912
NsS'margene'
p3913
NsS'natashia'
p3914
NsS'maryland'
p3915
NsS'lilly'
p3916
NsS'lasonya'
p3917
NsS'scarlett'
p3918
NsS'garret'
p3919
NsS'isaias'
p3920
NsS'eloisa'
p3921
NsS'nichole'
p3922
NsS'eloise'
p3923
NsS'micaela'
p3924
NsS'kizzy'
p3925
NsS'ophelia'
p3926
NsS'gina'
p3927
NsS'kitty'
p3928
NsS'judi'
p3929
NsS'consuelo'
p3930
NsS'carmelita'
p3931
NsS'ocie'
p3932
NsS'alden'
p3933
NsS'ja'
p3934
NsS'maryanna'
p3935
NsS'delmy'
p3936
NsS'maryanne'
p3937
NsS'machelle'
p3938
NsS'isaiah'
p3939
NsS'clement'
p3940
NsS'bryant'
p3941
NsS'devona'
p3942
NsS'carman'
p3943
NsS'jerrold'
p3944
NsS'shante'
p3945
NsS'erlinda'
p3946
NsS'petronila'
p3947
NsS'deneen'
p3948
NsS'eva'
p3949
NsS'joel'
p3950
NsS'michael'
p3951
NsS'eve'
p3952
NsS'ryan'
p3953
NsS'gretta'
p3954
NsS'hyacinth'
p3955
NsS'marilynn'
p3956
NsS'leonarda'
p3957
NsS'gwenn'
p3958
NsS'kit'
p3959
NsS'alia'
p3960
NsS'eldora'
p3961
NsS'kenisha'
p3962
NsS'keena'
p3963
NsS'barbara'
p3964
NsS'joey'
p3965
NsS'claudia'
p3966
NsS'eugena'
p3967
NsS'kathern'
p3968
NsS'jeffie'
p3969
NsS'claudie'
p3970
NsS'carter'
p3971
NsS'dagmar'
p3972
NsS'letisha'
p3973
NsS'evette'
p3974
NsS'carly'
p3975
NsS'leeann'
p3976
NsS'claudio'
p3977
NsS'alvaro'
p3978
NsS'carla'
p3979
NsS'lisandra'
p3980
NsS'elenore'
p3981
NsS'jared'
p3982
NsS'shenika'
p3983
NsS'elise'
p3984
NsS'carli'
p3985
NsS'trang'
p3986
NsS'carlo'
p3987
NsS'elisa'
p3988
NsS'victor'
p3989
NsS'alix'
p3990
NsS'edison'
p3991
NsS'amiee'
p3992
NsS'caridad'
p3993
NsS'kris'
p3994
NsS'mollie'
p3995
NsS'anton'
p3996
NsS'maryjo'
p3997
NsS'norberto'
p3998
NsS'adella'
p3999
NsS'laurence'
p4000
NsS'katlyn'
p4001
NsS'freeda'
p4002
NsS'susanne'
p4003
NsS'nicholas'
p4004
NsS'ginny'
p4005
NsS'cecily'
p4006
NsS'susanna'
p4007
NsS'phoebe'
p4008
NsS'lea'
p4009
NsS'mauricio'
p4010
NsS'lee'
p4011
NsS'theda'
p4012
NsS'mitsuko'
p4013
NsS'dolly'
p4014
NsS'len'
p4015
NsS'leo'
p4016
NsS'desiree'
p4017
NsS'peggy'
p4018
NsS'les'
p4019
NsS'aracelis'
p4020
NsS'ashlyn'
p4021
NsS'luis'
p4022
NsS'asuncion'
p4023
NsS'tatiana'
p4024
NsS'melynda'
p4025
NsS'ruthie'
p4026
NsS'theressa'
p4027
NsS'blossom'
p4028
NsS'micah'
p4029
NsS'barb'
p4030
NsS'crista'
p4031
NsS'alysha'
p4032
NsS'cleopatra'
p4033
NsS'sherrell'
p4034
NsS'calvin'
p4035
NsS'lanelle'
p4036
NsS'dyan'
p4037
NsS'stephany'
p4038
NsS'emely'
p4039
NsS'stephania'
p4040
NsS'chang'
p4041
NsS'gene'
p4042
NsS'stephanie'
p4043
NsS'sheilah'
p4044
NsS'nobuko'
p4045
NsS'gena'
p4046
NsS'sheila'
p4047
NsS'delana'
p4048
NsS'lavonia'
p4049
NsS'riva'
p4050
NsS'clark'
p4051
NsS'clare'
p4052
NsS'barrie'
p4053
NsS'clara'
p4054
NsS'altha'
p4055
NsS'danika'
p4056
NsS'kristine'
p4057
NsS'reda'
p4058
NsS'refugio'
p4059
NsS'kristina'
p4060
NsS'wilford'
p4061
NsS'refugia'
p4062
NsS'jone'
p4063
NsS'sharda'
p4064
NsS'denice'
p4065
NsS'shannan'
p4066
NsS'meryl'
p4067
NsS'francis'
p4068
NsS'jazmine'
p4069
NsS'kym'
p4070
NsS'elodia'
p4071
NsS'chi'
p4072
NsS'geri'
p4073
NsS'merissa'
p4074
NsS'verla'
p4075
NsS'inez'
p4076
NsS'vella'
p4077
NsS'emelina'
p4078
NsS'wayne'
p4079
NsS'debbie'
p4080
NsS'deon'
p4081
NsS'tabitha'
p4082
NsS'concepcion'
p4083
NsS'jonathan'
p4084
NsS'anja'
p4085
NsS'lennie'
p4086
NsS'krysta'
p4087
NsS'vonnie'
p4088
NsS'bernarda'
p4089
NsS'luba'
p4090
NsS'tandy'
p4091
NsS'usha'
p4092
NsS'collen'
p4093
NsS'katelyn'
p4094
NsS'stephenie'
p4095
NsS'elizebeth'
p4096
NsS'vanetta'
p4097
NsS'connie'
p4098
NsS'madaline'
p4099
NsS'carley'
p4100
NsS'nyla'
p4101
NsS'charity'
p4102
NsS'reynalda'
p4103
NsS'annmarie'
p4104
NsS'britney'
p4105
NsS'anika'
p4106
NsS'gabriel'
p4107
NsS'armanda'
p4108
NsS'tarah'
p4109
NsS'joellen'
p4110
NsS'lashawna'
p4111
NsS'reynaldo'
p4112
NsS'erwin'
p4113
NsS'emerson'
p4114
NsS'margert'
p4115
NsS'shelton'
p4116
NsS'loreta'
p4117
NsS'margery'
p4118
NsS'chin'
p4119
NsS'tiffanie'
p4120
NsS'billye'
p4121
NsS'glendora'
p4122
NsS'hae'
p4123
NsS'cristen'
p4124
NsS'donya'
p4125
NsS'arlen'
p4126
NsS'kenny'
p4127
NsS'jermaine'
p4128
NsS'cierra'
p4129
NsS'etta'
p4130
NsS'carrol'
p4131
NsS'alayna'
p4132
NsS'karyl'
p4133
NsS'celsa'
p4134
NsS'tad'
p4135
NsS'ngan'
p4136
NsS'vallie'
p4137
NsS'hilton'
p4138
NsS'blaine'
p4139
NsS'latonia'
p4140
NsS'lenora'
p4141
NsS'enrique'
p4142
NsS'astrid'
p4143
NsS'kenna'
p4144
NsS'lenore'
p4145
NsS'tammi'
p4146
NsS'angeles'
p4147
NsS'kenda'
p4148
NsS'chia'
p4149
NsS'kayleigh'
p4150
NsS'mitsue'
p4151
NsS'siu'
p4152
NsS'reva'
p4153
NsS'kenyetta'
p4154
NsS'elenora'
p4155
NsS'jeraldine'
p4156
NsS'lesley'
p4157
NsS'glady'
p4158
NsS'tai'
p4159
NsS'camille'
p4160
NsS'brian'
p4161
NsS'camilla'
p4162
NsS'forest'
p4163
NsS'sid'
p4164
NsS'ferdinand'
p4165
NsS'antione'
p4166
NsS'marylouise'
p4167
NsS'cristal'
p4168
NsS'barbar'
p4169
NsS'tien'
p4170
NsS'fran'
p4171
NsS'gonzalo'
p4172
NsS'fermina'
p4173
NsS'lonna'
p4174
NsS'ronald'
p4175
NsS'bertie'
p4176
NsS'derick'
p4177
NsS'yoshiko'
p4178
NsS'dominick'
p4179
NsS'jonathon'
p4180
NsS'echo'
p4181
NsS'kiersten'
p4182
NsS'jolanda'
p4183
NsS'reggie'
p4184
NsS'lisbeth'
p4185
NsS'carolin'
p4186
NsS'lakeisha'
p4187
NsS'marylin'
p4188
NsS'dominica'
p4189
NsS'estrella'
p4190
NsS'delsie'
p4191
NsS'halley'
p4192
NsS'emelda'
p4193
NsS'robby'
p4194
NsS'lucinda'
p4195
NsS'mendy'
p4196
NsS'eusebia'
p4197
NsS'delena'
p4198
NsS'deetta'
p4199
NsS'emanuel'
p4200
NsS'efren'
p4201
NsS'claire'
p4202
NsS'cassaundra'
p4203
NsS'laurie'
p4204
NsS'martina'
p4205
NsS'nancy'
p4206
NsS'jennine'
p4207
NsS'monet'
p4208
NsS'cinthia'
p4209
NsS'octavio'
p4210
NsS'lala'
p4211
NsS'cecille'
p4212
NsS'dorris'
p4213
NsS'clarissa'
p4214
NsS'houston'
p4215
NsS'christia'
p4216
NsS'evelynn'
p4217
NsS'elia'
p4218
NsS'dannie'
p4219
NsS'doloris'
p4220
NsS'ramiro'
p4221
NsS'rolf'
p4222
NsS'lanita'
p4223
NsS'evelyne'
p4224
NsS'ivana'
p4225
NsS'joanne'
p4226
NsS'jacqui'
p4227
NsS'joanna'
p4228
NsS'stasia'
p4229
NsS'shonda'
p4230
NsS'karry'
p4231
NsS'dovie'
p4232
NsS'efrain'
p4233
NsS'charlene'
p4234
NsS'warren'
p4235
NsS'glen'
p4236
NsS'colton'
p4237
NsS'blake'
p4238
NsS'jeanna'
p4239
NsS'anastacia'
p4240
NsS'bridget'
p4241
NsS'jodi'
p4242
NsS'johnetta'
p4243
NsS'lauralee'
p4244
NsS'brook'
p4245
NsS'sunday'
p4246
NsS'chanel'
p4247
NsS'romelia'
p4248
NsS'tyrone'
p4249
NsS'tyler'
p4250
NsS'kizzie'
p4251
NsS'meridith'
p4252
NsS'maryalice'
p4253
NsS'garnet'
p4254
NsS'jody'
p4255
NsS'mikki'
p4256
NsS'carola'
p4257
NsS'alexander'
p4258
NsS'wen'
p4259
NsS'carole'
p4260
NsS'valarie'
p4261
NsS'marlys'
p4262
NsS'catherine'
p4263
NsS'dan'
p4264
NsS'federico'
p4265
NsS'enedina'
p4266
NsS'emerald'
p4267
NsS'jeannetta'
p4268
NsS'augustus'
p4269
NsS'monserrate'
p4270
NsS'marlyn'
p4271
NsS'wilda'
p4272
NsS'damian'
p4273
NsS'krystina'
p4274
NsS'hui'
p4275
NsS'hollie'
p4276
NsS'darcy'
p4277
NsS'bette'
p4278
NsS'normand'
p4279
NsS'queenie'
p4280
NsS'michaele'
p4281
NsS'delcie'
p4282
NsS'jazmin'
p4283
NsS'arlene'
p4284
NsS'morris'
p4285
NsS'tarsha'
p4286
NsS'renna'
p4287
NsS'betty'
p4288
NsS'tracey'
p4289
NsS'scarlet'
p4290
NsS'darci'
p4291
NsS'edie'
p4292
NsS'jeane'
p4293
NsS'lecia'
p4294
NsS'quintin'
p4295
NsS'eula'
p4296
NsS'dixie'
p4297
NsS'janiece'
p4298
NsS'chung'
p4299
NsS'hyun'
p4300
NsS'vanita'
p4301
NsS'charla'
p4302
NsS'sandi'
p4303
NsS'terresa'
p4304
NsS'alejandro'
p4305
NsS'meta'
p4306
NsS'emmitt'
p4307
NsS'vi'
p4308
NsS'britta'
p4309
NsS'morton'
p4310
NsS'randee'
p4311
NsS'shannon'
p4312
NsS'alejandra'
p4313
NsS'dorothea'
p4314
NsS'nannette'
p4315
NsS'matt'
p4316
NsS'rey'
p4317
NsS'oralia'
p4318
NsS'arlyne'
p4319
NsS'cleotilde'
p4320
NsS'nikia'
p4321
NsS'hyman'
p4322
NsS'awilda'
p4323
NsS'ricky'
p4324
NsS'lavette'
p4325
NsS'dania'
p4326
NsS'brittanie'
p4327
NsS'carita'
p4328
NsS'betsey'
p4329
NsS'sarina'
p4330
NsS'alysa'
p4331
NsS'maryellen'
p4332
NsS'rea'
p4333
NsS'hortensia'
p4334
NsS'ricki'
p4335
NsS'harold'
p4336
NsS'maren'
p4337
NsS'jessica'
p4338
NsS'xuan'
p4339
NsS'idella'
p4340
NsS'sommer'
p4341
NsS'lizzie'
p4342
NsS'charis'
p4343
NsS'harriett'
p4344
NsS'molly'
p4345
NsS'sanjuanita'
p4346
NsS'jill'
p4347
NsS'amira'
p4348
NsS'nisha'
p4349
NsS'jina'
p4350
NsS'philip'
p4351
NsS'ewa'
p4352
NsS'bettyann'
p4353
NsS'princess'
p4354
NsS'lorene'
p4355
NsS'kristyn'
p4356
NsS'kathryne'
p4357
NsS'linnea'
p4358
NsS'florida'
p4359
NsS'mac'
p4360
NsS'horace'
p4361
NsS'david'
p4362
NsS'marcelo'
p4363
NsS'ayanna'
p4364
NsS'conchita'
p4365
NsS'lindsy'
p4366
NsS'adrian'
p4367
NsS'davis'
p4368
NsS'donnette'
p4369
NsS'austin'
p4370
NsS'anita'
p4371
NsS'kendall'
p4372
NsS'leonore'
p4373
NsS'shirely'
p4374
NsS'yong'
p4375
NsS'charise'
p4376
NsS'elyse'
p4377
NsS'justine'
p4378
NsS'violette'
p4379
NsS'karlyn'
p4380
NsS'jesus'
p4381
NsS'milagro'
p4382
NsS'olene'
p4383
NsS'twanna'
p4384
NsS'toi'
p4385
NsS'sherrill'
p4386
NsS'ying'
p4387
NsS'lolita'
p4388
NsS'sharon'
p4389
NsS'porfirio'
p4390
NsS'donte'
p4391
NsS'natosha'
p4392
NsS'sha'
p4393
NsS'katrice'
p4394
NsS'maurice'
p4395
NsS'janise'
p4396
NsS'hilary'
p4397
NsS'thomasine'
p4398
NsS'becki'
p4399
NsS'lynnette'
p4400
NsS'stephan'
p4401
NsS'shanna'
p4402
NsS'liane'
p4403
NsS'isaura'
p4404
NsS'carleen'
p4405
NsS'abbie'
p4406
NsS'jovita'
p4407
NsS'tiera'
p4408
NsS'brunilda'
p4409
NsS'joette'
p4410
NsS'valda'
p4411
NsS'mariana'
p4412
NsS'seymour'
p4413
NsS'wendell'
p4414
NsS'orpha'
p4415
NsS'juli'
p4416
NsS'starr'
p4417
NsS'megan'
p4418
NsS'verlene'
p4419
NsS'eulah'
p4420
NsS'kellye'
p4421
NsS'claretta'
p4422
NsS'tajuana'
p4423
NsS'linette'
p4424
NsS'gia'
p4425
NsS'chong'
p4426
NsS'carma'
p4427
NsS'shanika'
p4428
NsS'tamica'
p4429
NsS'roberta'
p4430
NsS'jerrell'
p4431
NsS'ben'
p4432
NsS'nanci'
p4433
NsS'casimira'
p4434
NsS'jackelyn'
p4435
NsS'bea'
p4436
NsS'roberto'
p4437
NsS'margarette'
p4438
NsS'gaye'
p4439
NsS'tommy'
p4440
NsS'xenia'
p4441
NsS'antionette'
p4442
NsS'sharleen'
p4443
NsS'leslie'
p4444
NsS'emmett'
p4445
NsS'bev'
p4446
NsS'jacqulyn'
p4447
NsS'kellee'
p4448
NsS'joanie'
p4449
NsS'linwood'
p4450
NsS'palmer'
p4451
NsS'julian'
p4452
NsS'delores'
p4453
NsS'jettie'
p4454
NsS'shella'
p4455
NsS'miquel'
p4456
NsS'bertha'
p4457
NsS'chelsie'
p4458
NsS'alfonso'
p4459
NsS'alexa'
p4460
NsS'alverta'
p4461
NsS'alisia'
p4462
NsS'kelley'
p4463
NsS'cecil'
p4464
NsS'eryn'
p4465
NsS'lindy'
p4466
NsS'maritza'
p4467
NsS'lila'
p4468
NsS'darby'
p4469
NsS'milly'
p4470
NsS'dallas'
p4471
NsS'kristy'
p4472
NsS'dodie'
p4473
NsS'tomasa'
p4474
NsS'lili'
p4475
NsS'octavia'
p4476
NsS'krista'
p4477
NsS'carlee'
p4478
NsS'luisa'
p4479
NsS'danica'
p4480
NsS'luise'
p4481
NsS'kristi'
p4482
NsS'linda'
p4483
NsS'serina'
p4484
NsS'martha'
p4485
NsS'lily'
p4486
NsS'grazyna'
p4487
NsS'ligia'
p4488
NsS'tabatha'
p4489
NsS'deloise'
p4490
NsS'lashell'
p4491
NsS'edris'
p4492
NsS'alton'
p4493
NsS'chantell'
p4494
NsS'beverlee'
p4495
NsS'hazel'
p4496
NsS'jorge'
p4497
NsS'veronique'
p4498
NsS'eneida'
p4499
NsS'denna'
p4500
NsS'deena'
p4501
NsS'loralee'
p4502
NsS'phyllis'
p4503
NsS'sally'
p4504
NsS'herman'
p4505
NsS'wilfredo'
p4506
NsS'otilia'
p4507
NsS'sheba'
p4508
NsS'sherril'
p4509
NsS'frederica'
p4510
NsS'sanora'
p4511
NsS'jolie'
p4512
NsS'bree'
p4513
NsS'hulda'
p4514
NsS'frederick'
p4515
NsS'lanell'
p4516
NsS'patrina'
p4517
NsS'tamiko'
p4518
NsS'claudine'
p4519
NsS'bok'
p4520
NsS'lieselotte'
p4521
NsS'xavier'
p4522
NsS'dena'
p4523
NsS'bret'
p4524
NsS'karren'
p4525
NsS'tamika'
p4526
NsS'marge'
p4527
NsS'dorotha'
p4528
NsS'lorna'
p4529
NsS'catalina'
p4530
NsS'chadwick'
p4531
NsS'myrna'
p4532
NsS'anibal'
p4533
NsS'charles'
p4534
NsS'scotty'
p4535
NsS'inga'
p4536
NsS'florentina'
p4537
NsS'roselia'
p4538
NsS'kaylee'
p4539
NsS'rashida'
p4540
NsS'lloyd'
p4541
NsS'dorothy'
p4542
NsS'jonell'
p4543
NsS'belkis'
p4544
NsS'gaynelle'
p4545
NsS'noelia'
p4546
NsS'florentino'
p4547
NsS'eda'
p4548
NsS'lakia'
p4549
NsS'maryetta'
p4550
NsS'cyril'
p4551
NsS'perla'
p4552
NsS'cherryl'
p4553
NsS'jay'
p4554
NsS'kassandra'
p4555
NsS'stephine'
p4556
NsS'clemmie'
p4557
NsS'betsy'
p4558
NsS'hector'
p4559
NsS'tabetha'
p4560
NsS'ethan'
p4561
NsS'darrick'
p4562
NsS'aretha'
p4563
NsS'sylvia'
p4564
NsS'jae'
p4565
NsS'elin'
p4566
NsS'hope'
p4567
NsS'krystyna'
p4568
NsS'boris'
p4569
NsS'jacqueline'
p4570
NsS'bernardine'
p4571
NsS'rebecka'
p4572
NsS'bruna'
p4573
NsS'lynn'
p4574
NsS'lela'
p4575
NsS'silas'
p4576
NsS'miguelina'
p4577
NsS'venetta'
p4578
NsS'anisha'
p4579
NsS'tierra'
p4580
NsS'katharine'
p4581
NsS'katharina'
p4582
NsS'jeannie'
p4583
NsS'abby'
p4584
NsS'marquis'
p4585
NsS'melodee'
p4586
NsS'glory'
p4587
NsS'tressa'
p4588
NsS'titus'
p4589
NsS'mohammed'
p4590
NsS'shoshana'
p4591
NsS'florrie'
p4592
NsS'particia'
p4593
NsS'reid'
p4594
NsS'felipe'
p4595
NsS'jaime'
p4596
NsS'rosaura'
p4597
NsS'felipa'
p4598
NsS'mercedes'
p4599
NsS'gerardo'
p4600
NsS'christoper'
p4601
NsS'faustina'
p4602
NsS'hsiu'
p4603
NsS'dillon'
p4604
NsS'latesha'
p4605
NsS'oma'
p4606
NsS'cristopher'
p4607
NsS'alvera'
p4608
NsS'travis'
p4609
NsS'edda'
p4610
NsS'krystle'
p4611
NsS'eleonora'
p4612
NsS'violet'
p4613
NsS'katheleen'
p4614
NsS'maranda'
p4615
NsS'graciela'
p4616
NsS'charlena'
p4617
NsS'mirta'
p4618
NsS'pricilla'
p4619
NsS'laverne'
p4620
NsS'tammie'
p4621
NsS'cleora'
p4622
NsS'destiny'
p4623
NsS'sigrid'
p4624
NsS'cythia'
p4625
NsS'luz'
p4626
NsS'ralph'
p4627
NsS'leigha'
p4628
NsS'avelina'
p4629
NsS'estefana'
p4630
NsS'tyra'
p4631
NsS'ashleigh'
p4632
NsS'marsha'
p4633
NsS'bruno'
p4634
NsS'mignon'
p4635
NsS'ressie'
p4636
NsS'junko'
p4637
NsS'kaycee'
p4638
NsS'grisel'
p4639
NsS'jacque'
p4640
NsS'aron'
p4641
NsS'madelyn'
p4642
NsS'dwain'
p4643
NsS'ken'
p4644
NsS'janet'
p4645
NsS'merri'
p4646
NsS'debbi'
p4647
NsS'janey'
p4648
NsS'joy'
p4649
NsS'talia'
p4650
NsS'amee'
p4651
NsS'rueben'
p4652
NsS'addie'
p4653
NsS'duane'
p4654
NsS'erline'
p4655
NsS'allena'
p4656
NsS'eun'
p4657
NsS'janee'
p4658
NsS'joe'
p4659
NsS'belinda'
p4660
NsS'shemeka'
p4661
NsS'jerrod'
p4662
NsS'keely'
p4663
NsS'precious'
p4664
NsS'ofelia'
p4665
NsS'janel'
p4666
NsS'jon'
p4667
NsS'barrett'
p4668
NsS'marty'
p4669
NsS'janell'
p4670
NsS'bee'
p4671
NsS'mindy'
p4672
NsS'wilbur'
p4673
NsS'norbert'
p4674
NsS'olga'
p4675
NsS'goldie'
p4676
NsS'darryl'
p4677
NsS'april'
p4678
NsS'ciera'
p4679
NsS'mindi'
p4680
NsS'louetta'
p4681
NsS'hildred'
p4682
NsS'marta'
p4683
NsS'hipolito'
p4684
NsS'rodney'
p4685
NsS'minda'
p4686
NsS'graig'
p4687
NsS'christel'
p4688
NsS'lashay'
p4689
NsS'christen'
p4690
NsS'rebekah'
p4691
NsS'dominique'
p4692
NsS'gita'
p4693
NsS'galina'
p4694
NsS'romona'
p4695
NsS'malcolm'
p4696
NsS'irish'
p4697
NsS'delorse'
p4698
NsS'karisa'
p4699
NsS'denise'
p4700
NsS'ellamae'
p4701
NsS'denis'
p4702
NsS'sharilyn'
p4703
NsS'malisa'
p4704
NsS'lorrie'
p4705
NsS'ellsworth'
p4706
NsS'katherina'
p4707
NsS'willy'
p4708
NsS'shameka'
p4709
NsS'klara'
p4710
NsS'ozella'
p4711
NsS'calista'
p4712
NsS'catherin'
p4713
NsS'silvia'
p4714
NsS'sara'
p4715
NsS'elmer'
p4716
NsS'farah'
p4717
NsS'darren'
p4718
NsS'nellie'
p4719
NsS'rochelle'
p4720
NsS'lu'
p4721
NsS'kanisha'
p4722
NsS'rhoda'
p4723
NsS'trudie'
p4724
NsS'willa'
p4725
NsS'gwenda'
p4726
NsS'sharika'
p4727
NsS'trinity'
p4728
NsS'cheyenne'
p4729
NsS'selina'
p4730
NsS'marcellus'
p4731
NsS'mike'
p4732
NsS'beatrice'
p4733
NsS'anglea'
p4734
NsS'raelene'
p4735
NsS'aubrey'
p4736
NsS'eduardo'
p4737
NsS'vince'
p4738
NsS'caroll'
p4739
NsS'miki'
p4740
NsS'lavada'
p4741
NsS'angelika'
p4742
NsS'kala'
p4743
NsS'sharell'
p4744
NsS'kathlyn'
p4745
NsS'tandra'
p4746
NsS'thora'
p4747
NsS'napoleon'
p4748
NsS'kristeen'
p4749
NsS'homer'
p4750
NsS'weston'
p4751
NsS'pearlene'
p4752
NsS'mickie'
p4753
NsS'tiara'
p4754
NsS'vicki'
p4755
NsS'augusta'
p4756
NsS'will'
p4757
NsS'coy'
p4758
NsS'maud'
p4759
NsS'temika'
p4760
NsS'madeleine'
p4761
NsS'vicky'
p4762
NsS'heriberto'
p4763
NsS'archie'
p4764
NsS'tiffaney'
p4765
NsS'mayme'
p4766
NsS'lawerence'
p4767
NsS'thuy'
p4768
NsS'freeman'
p4769
NsS'evelyn'
p4770
NsS'alfredia'
p4771
NsS'nilsa'
p4772
NsS'simone'
p4773
NsS'simona'
p4774
NsS'felica'
p4775
NsS'rodrigo'
p4776
NsS'kylee'
p4777
NsS'felice'
p4778
NsS'ava'
p4779
NsS'kortney'
p4780
NsS'anjelica'
p4781
NsS'nelda'
p4782
NsS'tayna'
p4783
NsS'juan'
p4784
NsS'mimi'
p4785
NsS'argelia'
p4786
NsS'jenna'
p4787
NsS'matthew'
p4788
NsS'verna'
p4789
NsS'chrissy'
p4790
NsS'eugenio'
p4791
NsS'eugenia'
p4792
NsS'mauro'
p4793
NsS'solange'
p4794
NsS'nada'
p4795
NsS'paula'
p4796
NsS'ashli'
p4797
NsS'genny'
p4798
NsS'larae'
p4799
NsS'kimberlee'
p4800
NsS'raymond'
p4801
NsS'suzy'
p4802
NsS'adeline'
p4803
NsS'edythe'
p4804
NsS'adelina'
p4805
NsS'romeo'
p4806
NsS'ashly'
p4807
NsS'xiomara'
p4808
NsS'louvenia'
p4809
NsS'otelia'
p4810
NsS'jackeline'
p4811
NsS'ettie'
p4812
NsS'jaclyn'
p4813
NsS'thalia'
p4814
NsS'shaunta'
p4815
NsS'lorretta'
p4816
NsS'kimberley'
p4817
NsS'antonia'
p4818
NsS'donnell'
p4819
NsS'ashley'
p4820
NsS'valerie'
p4821
NsS'kandis'
p4822
NsS'dinah'
p4823
NsS'seth'
p4824
NsS'fausto'
p4825
NsS'latoya'
p4826
NsS'antonio'
p4827
NsS'emilee'
p4828
NsS'collin'
p4829
NsS'ashlee'
p4830
NsS'rocio'
p4831
NsS'delila'
p4832
NsS'breann'
p4833
NsS'shanon'
p4834
NsS'vivien'
p4835
NsS'rashad'
p4836
NsS'cristi'
p4837
NsS'dollie'
p4838
NsS'carrie'
p4839
NsS'mechelle'
p4840
NsS'savannah'
p4841
NsS'liliana'
p4842
NsS'kiley'
p4843
NsS'sofia'
p4844
NsS'rachell'
p4845
NsS'camie'
p4846
NsS'erlene'
p4847
NsS'raymundo'
p4848
NsS'cristy'
p4849
NsS'fumiko'
p4850
NsS'gwen'
p4851
NsS'patsy'
p4852
NsS'diedre'
p4853
NsS'dakota'
p4854
NsS'laurel'
p4855
NsS'paul'
p4856
NsS'lauren'
p4857
NsS'ozie'
p4858
NsS'lyndia'
p4859
NsS'nicky'
p4860
NsS'candie'
p4861
NsS'paulita'
p4862
NsS'trudi'
p4863
NsS'vida'
p4864
NsS'jolyn'
p4865
NsS'patricia'
p4866
NsS'tawna'
p4867
NsS'wes'
p4868
NsS'toni'
p4869
NsS'clyde'
p4870
NsS'nicki'
p4871
NsS'moriah'
p4872
NsS'tawny'
p4873
NsS'trudy'
p4874
NsS'maegan'
p4875
NsS'raven'
p4876
NsS'jc'
p4877
NsS'sonia'
p4878
NsS'ericka'
p4879
NsS'kimbra'
p4880
NsS'laurine'
p4881
NsS'livia'
p4882
NsS'dede'
p4883
NsS'adolph'
p4884
NsS'monique'
p4885
NsS'leena'
p4886
NsS'cruz'
p4887
NsS'doyle'
p4888
NsS'celesta'
p4889
NsS'coreen'
p4890
NsS'alisha'
p4891
NsS'hettie'
p4892
NsS'lavonne'
p4893
NsS'lauryn'
p4894
NsS'neda'
p4895
NsS'denyse'
p4896
NsS'lincoln'
p4897
NsS'lilian'
p4898
NsS'emma'
p4899
NsS'glayds'
p4900
NsS'sindy'
p4901
NsS'malia'
p4902
NsS'eric'
p4903
NsS'samira'
p4904
NsS'audie'
p4905
NsS'fernando'
p4906
NsS'candy'
p4907
NsS'tawanna'
p4908
NsS'michaela'
p4909
NsS'fatimah'
p4910
NsS'cletus'
p4911
NsS'dennise'
p4912
NsS'maira'
p4913
NsS'martin'
p4914
NsS'isadora'
p4915
NsS'conrad'
p4916
NsS'emmy'
p4917
NsS'tracee'
p4918
NsS'candi'
p4919
NsS'armand'
p4920
NsS'tawana'
p4921
NsS'neely'
p4922
NsS'edyth'
p4923
NsS'paulina'
p4924
NsS'tesha'
p4925
NsS'sherika'
p4926
NsS'pauline'
p4927
NsS'delinda'
p4928
NsS'breana'
p4929
NsS'shaun'
p4930
NsS'kathe'
p4931
NsS'tiana'
p4932
NsS'mariella'
p4933
NsS'francisco'
p4934
NsS'lawanna'
p4935
NsS'cleveland'
p4936
NsS'annett'
p4937
NsS'ludie'
p4938
NsS'peter'
p4939
NsS'shakira'
p4940
NsS'tameika'
p4941
NsS'jeremy'
p4942
NsS'wendi'
p4943
NsS'billy'
p4944
NsS'garrett'
p4945
NsS'leontine'
p4946
NsS'marivel'
p4947
NsS'georgiann'
p4948
NsS'christiane'
p4949
NsS'anabel'
p4950
NsS'wendy'
p4951
NsS'karima'
p4952
NsS'aundrea'
p4953
NsS'fanny'
p4954
NsS'brigitte'
p4955
NsS'arlena'
p4956
NsS'pasty'
p4957
NsS'qiana'
p4958
NsS'haywood'
p4959
NsS'towanda'
p4960
NsS'cedrick'
p4961
NsS'raisa'
p4962
NsS'lurlene'
p4963
NsS'christiana'
p4964
NsS'everette'
p4965
NsS'thanh'
p4966
NsS'camila'
p4967
NsS'myron'
p4968
NsS'francisca'
p4969
NsS'millicent'
p4970
NsS'wesley'
p4971
NsS'kristin'
p4972
NsS'mirian'
p4973
NsS'kristie'
p4974
NsS'hwa'
p4975
NsS'sheree'
p4976
NsS'tarra'
p4977
NsS'mellie'
p4978
NsS'terisa'
p4979
NsS'hana'
p4980
NsS'iris'
p4981
NsS'blythe'
p4982
NsS'justin'
p4983
NsS'maybelle'
p4984
NsS'hien'
p4985
NsS'francina'
p4986
NsS'asha'
p4987
NsS'francine'
p4988
NsS'kourtney'
p4989
NsS'tereasa'
p4990
NsS'tomi'
p4991
NsS'marylee'
p4992
NsS'tressie'
p4993
NsS'quinton'
p4994
NsS'lakesha'
p4995
NsS'lezlie'
p4996
NsS'shanti'
p4997
NsS'warner'
p4998
NsS'jannet'
p4999
NsS'burma'
p5000
NsS'rufina'
p5001
NsS'keren'
p5002
NsS'carolyn'
p5003
NsS'glenn'
p5004
NsS'catherina'
p5005
NsS'marielle'
p5006
NsS'rafaela'
p5007
NsS'clifton'
p5008
NsS'palmira'
p5009
NsS'jeromy'
p5010
NsS'terence'
p5011
NsS'raquel'
p5012
NsS'meri'
p5013
NsS'luna'
p5014
NsS'jenine'
p5015
NsS'hubert'
p5016
NsS'joyce'
p5017
NsS'jaimee'
p5018
NsS'dannette'
p5019
NsS'cyrus'
p5020
NsS'hang'
p5021
NsS'syble'
p5022
NsS'celinda'
p5023
NsS'sabra'
p5024
NsS'verdell'
p5025
NsS'van'
p5026
NsS'keneth'
p5027
NsS'val'
p5028
NsS'emory'
p5029
NsS'annabel'
p5030
NsS'indira'
p5031
NsS'cinderella'
p5032
NsS'dolores'
p5033
NsS'tamatha'
p5034
NsS'debroah'
p5035
NsS'joaquin'
p5036
NsS'pa'
p5037
NsS'daniell'
p5038
NsS'sandee'
p5039
NsS'benito'
p5040
NsS'annette'
p5041
NsS'daniela'
p5042
NsS'tamar'
p5043
NsS'cliff'
p5044
NsS'annetta'
p5045
NsS'daniele'
p5046
NsS'aleisha'
p5047
NsS'mathilde'
p5048
NsS'ivory'
p5049
NsS'marlen'
p5050
NsS'rogelio'
p5051
NsS'rodger'
p5052
NsS'kandi'
p5053
NsS'shane'
p5054
NsS'margy'
p5055
NsS'chere'
p5056
NsS'shana'
p5057
NsS'maisha'
p5058
NsS'daphine'
p5059
NsS'caitlin'
p5060
NsS'melida'
p5061
NsS'hermine'
p5062
NsS'treva'
p5063
NsS'kandy'
p5064
NsS'gail'
p5065
NsS'davida'
p5066
NsS'brant'
p5067
NsS'ha'
p5068
NsS'kathie'
p5069
NsS'nicol'
p5070
NsS'bud'
p5071
NsS'margo'
p5072
NsS'misty'
p5073
NsS'mikel'
p5074
NsS'carmella'
p5075
NsS'farrah'
p5076
NsS'rutha'
p5077
NsS'eleonor'
p5078
NsS'zenaida'
p5079
NsS'pansy'
p5080
NsS'misti'
p5081
NsS'zada'
p5082
NsS'sanjuana'
p5083
NsS'yuko'
p5084
NsS'terina'
p5085
NsS'marcene'
p5086
NsS'yuki'
p5087
NsS'nedra'
p5088
NsS'beata'
p5089
NsS'irmgard'
p5090
NsS'fleta'
p5091
NsS'lurline'
p5092
NsS'jenny'
p5093
NsS'michal'
p5094
NsS'shonta'
p5095
NsS'penny'
p5096
NsS'buffy'
p5097
NsS'roselee'
p5098
NsS'mozella'
p5099
NsS'erin'
p5100
NsS'maura'
p5101
NsS'jessi'
p5102
NsS'erik'
p5103
NsS'karyn'
p5104
NsS'penni'
p5105
NsS'ina'
p5106
NsS'bulah'
p5107
NsS'jesse'
p5108
NsS'diego'
p5109
NsS'myrtle'
p5110
NsS'bula'
p5111
NsS'sharie'
p5112
NsS'misha'
p5113
NsS'abigail'
p5114
NsS'germaine'
p5115
NsS'derrick'
p5116
NsS'sandy'
p5117
NsS'sharron'
p5118
NsS'elvera'
p5119
NsS'yung'
p5120
NsS'ariane'
p5121
NsS'adam'
p5122
NsS'lance'
p5123
NsS'assunta'
p5124
NsS'elsa'
p5125
NsS'star'
p5126
NsS'virgilio'
p5127
NsS'hortense'
p5128
NsS'rayna'
p5129
NsS'june'
p5130
NsS'rex'
p5131
NsS'jung'
p5132
NsS'annabelle'
p5133
NsS'margaret'
p5134
NsS'chance'
p5135
NsS'reanna'
p5136
NsS'shera'
p5137
NsS'stan'
p5138
NsS'jackson'
p5139
NsS'hisako'
p5140
NsS'sheri'
p5141
NsS'heide'
p5142
NsS'jeanmarie'
p5143
NsS'dewey'
p5144
NsS'kathi'
p5145
NsS'moshe'
p5146
NsS'charlette'
p5147
NsS'heidy'
p5148
NsS'zenia'
p5149
NsS'pilar'
p5150
NsS'jewel'
p5151
NsS'emery'
p5152
NsS'luci'
p5153
NsS'glennie'
p5154
NsS'elaina'
p5155
NsS'demetra'
p5156
NsS'felicitas'
p5157
NsS'elaine'
p5158
NsS'elsie'
p5159
NsS'heidi'
p5160
NsS'glennis'
p5161
NsS'zelma'
p5162
NsS'wilma'
p5163
NsS'arianna'
p5164
Ns.